
W:/project/project.axf:     file format elf32-littlearm


Disassembly of section .text:

00000000 <__cs3_interrupt_vector>:
       0:	18 f0 9f e5 18 f0 9f e5 18 f0 9f e5 18 f0 9f e5     ................
      10:	18 f0 9f e5 18 f0 9f e5 18 f0 9f e5 18 f0 9f e5     ................
      20:	5c 02 00 00 60 02 00 00 64 02 00 00 68 02 00 00     \...`...d...h...
      30:	6c 02 00 00 f8 ca 00 00 b8 03 00 00 70 02 00 00     l...........p...

00000040 <__cs3_reset_generic>:
      40:	ea000026 	b	e0 <__cs3_start_asm_sim>

00000044 <__cs3_start_c>:
      44:	e59f608c 	ldr	r6, [pc, #140]	; d8 <__cs3_start_c+0x94>
      48:	e3560000 	cmp	r6, #0
      4c:	e92d4080 	push	{r7, lr}
      50:	e2466001 	sub	r6, r6, #1
      54:	0a00001e 	beq	d4 <__cs3_start_c+0x90>
      58:	e59f507c 	ldr	r5, [pc, #124]	; dc <__cs3_start_c+0x98>
      5c:	e3a00000 	mov	r0, #0
      60:	e3a01000 	mov	r1, #0
      64:	e515200c 	ldr	r2, [r5, #-12]
      68:	e515e010 	ldr	lr, [r5, #-16]
      6c:	e5154008 	ldr	r4, [r5, #-8]
      70:	e15e0002 	cmp	lr, r2
      74:	00822004 	addeq	r2, r2, r4
      78:	0a000009 	beq	a4 <__cs3_start_c+0x60>
      7c:	e3540000 	cmp	r4, #0
      80:	0a000007 	beq	a4 <__cs3_start_c+0x60>
      84:	e1a07002 	mov	r7, r2
      88:	e1a0c002 	mov	r12, r2
      8c:	e8be000c 	ldm	lr!, {r2, r3}
      90:	e8ac000c 	stmia	r12!, {r2, r3}
      94:	e067300c 	rsb	r3, r7, r12
      98:	e1540003 	cmp	r4, r3
      9c:	e1a0200c 	mov	r2, r12
      a0:	1afffff9 	bne	8c <__cs3_start_c+0x48>
      a4:	e515e004 	ldr	lr, [r5, #-4]
      a8:	e35e0000 	cmp	lr, #0
      ac:	11a03002 	movne	r3, r2
      b0:	0a000003 	beq	c4 <__cs3_start_c+0x80>
      b4:	e8a30003 	stmia	r3!, {r0, r1}
      b8:	e062c003 	rsb	r12, r2, r3
      bc:	e15e000c 	cmp	lr, r12
      c0:	1afffffb 	bne	b4 <__cs3_start_c+0x70>
      c4:	e2466001 	sub	r6, r6, #1
      c8:	e3760001 	cmn	r6, #1
      cc:	e2855014 	add	r5, r5, #20
      d0:	1affffe3 	bne	64 <__cs3_start_c+0x20>
      d4:	eb0030ea 	bl	c484 <__cs3_premain>
      d8:	00000001 	.word	0x00000001
      dc:	0000cdd0 	.word	0x0000cdd0

000000e0 <__cs3_start_asm_sim>:
      e0:	e28f103c 	add	r1, pc, #60	; 0x3c
      e4:	e3a00016 	mov	r0, #22
      e8:	ef123456 	svc	0x00123456
      ec:	e3500000 	cmp	r0, #0
      f0:	ba000008 	blt	118 <__cs3_start_asm_sim+0x38>
      f4:	e59f2028 	ldr	r2, [pc, #40]	; 124 <__cs3_heap_start_ptr>
      f8:	e59fd01c 	ldr	sp, [pc, #28]	; 11c <__cs3_start_asm_sim+0x3c>
      fc:	e5920008 	ldr	r0, [r2, #8]
     100:	e3500000 	cmp	r0, #0
     104:	11a0d000 	movne	sp, r0
     108:	e59f1010 	ldr	r1, [pc, #16]	; 120 <__cs3_start_asm_sim+0x40>
     10c:	e5920004 	ldr	r0, [r2, #4]
     110:	e3500000 	cmp	r0, #0
     114:	15810000 	strne	r0, [r1]
     118:	eaffffc9 	b	44 <__cs3_start_c>
     11c:	3ffffff8 	.word	0x3ffffff8
     120:	00091e88 	.word	0x00091e88

00000124 <__cs3_heap_start_ptr>:
     124:	00091ff0 	.word	0x00091ff0

00000128 <_start>:
     128:	e51fd000 	ldr	sp, [pc, #-0]	; 130 <_start+0x8>
     12c:	eaffffc4 	b	44 <__cs3_start_c>
     130:	3ffffff8 	.word	0x3ffffff8

00000134 <deregister_tm_clones>:
     134:	e92d4008 	push	{r3, lr}
     138:	e59f002c 	ldr	r0, [pc, #44]	; 16c <__cs3_region_zero_size_ram+0xc>
     13c:	e59f302c 	ldr	r3, [pc, #44]	; 170 <__cs3_region_zero_size_ram+0x10>
     140:	e0603003 	rsb	r3, r0, r3
     144:	e3530006 	cmp	r3, #6
     148:	8a000001 	bhi	154 <deregister_tm_clones+0x20>
     14c:	e8bd4008 	pop	{r3, lr}
     150:	e12fff1e 	bx	lr
     154:	e59f3018 	ldr	r3, [pc, #24]	; 174 <__cs3_region_zero_size_ram+0x14>
     158:	e3530000 	cmp	r3, #0
     15c:	0afffffa 	beq	14c <deregister_tm_clones+0x18>
     160:	e1a0e00f 	mov	lr, pc
     164:	e12fff13 	bx	r3
     168:	eafffff7 	b	14c <deregister_tm_clones+0x18>
     16c:	00091e90 	.word	0x00091e90
     170:	00091e93 	.word	0x00091e93
     174:	00000000 	.word	0x00000000

00000178 <register_tm_clones>:
     178:	e92d4008 	push	{r3, lr}
     17c:	e59f0034 	ldr	r0, [pc, #52]	; 1b8 <register_tm_clones+0x40>
     180:	e59f3034 	ldr	r3, [pc, #52]	; 1bc <register_tm_clones+0x44>
     184:	e0603003 	rsb	r3, r0, r3
     188:	e1a03143 	asr	r3, r3, #2
     18c:	e0833fa3 	add	r3, r3, r3, lsr #31
     190:	e1b010c3 	asrs	r1, r3, #1
     194:	1a000001 	bne	1a0 <register_tm_clones+0x28>
     198:	e8bd4008 	pop	{r3, lr}
     19c:	e12fff1e 	bx	lr
     1a0:	e59f2018 	ldr	r2, [pc, #24]	; 1c0 <register_tm_clones+0x48>
     1a4:	e3520000 	cmp	r2, #0
     1a8:	0afffffa 	beq	198 <register_tm_clones+0x20>
     1ac:	e1a0e00f 	mov	lr, pc
     1b0:	e12fff12 	bx	r2
     1b4:	eafffff7 	b	198 <register_tm_clones+0x20>
     1b8:	00091e90 	.word	0x00091e90
     1bc:	00091e90 	.word	0x00091e90
     1c0:	00000000 	.word	0x00000000

000001c4 <__do_global_dtors_aux>:
     1c4:	e92d4010 	push	{r4, lr}
     1c8:	e59f402c 	ldr	r4, [pc, #44]	; 1fc <__do_global_dtors_aux+0x38>
     1cc:	e5d43000 	ldrb	r3, [r4]
     1d0:	e3530000 	cmp	r3, #0
     1d4:	1a000006 	bne	1f4 <__do_global_dtors_aux+0x30>
     1d8:	ebffffd5 	bl	134 <deregister_tm_clones>
     1dc:	e59f301c 	ldr	r3, [pc, #28]	; 200 <__do_global_dtors_aux+0x3c>
     1e0:	e3530000 	cmp	r3, #0
     1e4:	159f0018 	ldrne	r0, [pc, #24]	; 204 <__do_global_dtors_aux+0x40>
     1e8:	1320f000 	nopne	{0}
     1ec:	e3a03001 	mov	r3, #1
     1f0:	e5c43000 	strb	r3, [r4]
     1f4:	e8bd4010 	pop	{r4, lr}
     1f8:	e12fff1e 	bx	lr
     1fc:	00091e90 	.word	0x00091e90
     200:	00000000 	.word	0x00000000
     204:	0000cb94 	.word	0x0000cb94

00000208 <frame_dummy>:
     208:	e92d4008 	push	{r3, lr}
     20c:	e59f3034 	ldr	r3, [pc, #52]	; 248 <frame_dummy+0x40>
     210:	e3530000 	cmp	r3, #0
     214:	159f0030 	ldrne	r0, [pc, #48]	; 24c <frame_dummy+0x44>
     218:	159f1030 	ldrne	r1, [pc, #48]	; 250 <frame_dummy+0x48>
     21c:	1320f000 	nopne	{0}
     220:	e59f002c 	ldr	r0, [pc, #44]	; 254 <frame_dummy+0x4c>
     224:	e5903000 	ldr	r3, [r0]
     228:	e3530000 	cmp	r3, #0
     22c:	0a000003 	beq	240 <frame_dummy+0x38>
     230:	e59f3020 	ldr	r3, [pc, #32]	; 258 <frame_dummy+0x50>
     234:	e3530000 	cmp	r3, #0
     238:	11a0e00f 	movne	lr, pc
     23c:	112fff13 	bxne	r3
     240:	e8bd4008 	pop	{r3, lr}
     244:	eaffffcb 	b	178 <register_tm_clones>
     248:	00000000 	.word	0x00000000
     24c:	0000cb94 	.word	0x0000cb94
     250:	00091e94 	.word	0x00091e94
     254:	0000cdd0 	.word	0x0000cdd0
     258:	00000000 	.word	0x00000000

0000025c <__cs3_reset>:

    //return;
}

// Define the remaining exception handlers
void __attribute__((interrupt)) __cs3_reset(void) {
     25c:	eafffffe 	b	25c <__cs3_reset>

00000260 <__cs3_isr_undef>:
    while (1);
}

void __attribute__((interrupt)) __cs3_isr_undef(void) {
     260:	eafffffe 	b	260 <__cs3_isr_undef>

00000264 <__cs3_isr_swi>:
    while (1);
}

void __attribute__((interrupt)) __cs3_isr_swi(void) {
     264:	eafffffe 	b	264 <__cs3_isr_swi>

00000268 <__cs3_isr_pabort>:
    while (1);
}

void __attribute__((interrupt)) __cs3_isr_pabort(void) {
     268:	eafffffe 	b	268 <__cs3_isr_pabort>

0000026c <__cs3_isr_dabort>:
    while (1);
}

void __attribute__((interrupt)) __cs3_isr_dabort(void) {
     26c:	eafffffe 	b	26c <__cs3_isr_dabort>

00000270 <__cs3_isr_fiq>:
    while (1);
}

void __attribute__((interrupt)) __cs3_isr_fiq(void) {
     270:	eafffffe 	b	270 <__cs3_isr_fiq>

00000274 <set_A9_IRQ_stack>:
{
    int stack, mode;
    stack = A9_ONCHIP_END - 7;		// top of A9 onchip memory, aligned to 8 bytes
    /* change processor to IRQ mode with interrupts disabled */
    mode = INT_DISABLE | IRQ_MODE;
    asm("msr cpsr, %[ps]" : : [ps] "r" (mode));
     274:	e3a030d2 	mov	r3, #210	; 0xd2
     278:	e129f003 	msr	CPSR_fc, r3
    /* set banked stack pointer */
    asm("mov sp, %[ps]" : : [ps] "r" (stack));
     27c:	e3e03007 	mvn	r3, #7
     280:	e1a0d003 	mov	sp, r3

    /* go back to SVC mode before executing subroutine return! */
    mode = INT_DISABLE | SVC_MODE;
    asm("msr cpsr, %[ps]" : : [ps] "r" (mode));
     284:	e3a030d3 	mov	r3, #211	; 0xd3
     288:	e129f003 	msr	CPSR_fc, r3
     28c:	e12fff1e 	bx	lr

00000290 <enable_A9_interrupts>:
 * Turn on interrupts in the ARM processor
*/
void enable_A9_interrupts(void)
{
    int status = SVC_MODE | INT_ENABLE;
    asm("msr cpsr,%[ps]" : : [ps]"r"(status));
     290:	e3a03053 	mov	r3, #83	; 0x53
     294:	e129f003 	msr	CPSR_fc, r3
     298:	e12fff1e 	bx	lr

0000029c <config_KEYs>:
}

/* setup the KEY interrupts in the FPGA */
void config_KEYs() {
    volatile int *KEY_ptr = (int *) KEY_BASE; // pushbutton KEY address
    *(KEY_ptr + 2) = 0x3;                    // enable interrupts for KEY[1]
     29c:	e3a03000 	mov	r3, #0
     2a0:	e34f3f20 	movt	r3, #65312	; 0xff20
     2a4:	e3a02003 	mov	r2, #3
     2a8:	e5832058 	str	r2, [r3, #88]	; 0x58
     2ac:	e12fff1e 	bx	lr

000002b0 <config_PS2>:
}
/* setup the PS/2 interrupts */
void config_PS2() {
    volatile int * PS2_ptr = (int *)PS2_BASE; // PS/2 port address

    *(PS2_ptr) = 0xFF; /* reset */
     2b0:	e3a03000 	mov	r3, #0
     2b4:	e34f3f20 	movt	r3, #65312	; 0xff20
     2b8:	e3a020ff 	mov	r2, #255	; 0xff
     2bc:	e5832100 	str	r2, [r3, #256]	; 0x100
    *(PS2_ptr + 1) =
     2c0:	e3a02001 	mov	r2, #1
     2c4:	e5832104 	str	r2, [r3, #260]	; 0x104
     2c8:	e12fff1e 	bx	lr

000002cc <pushbutton_ISR>:
            0x1; /* write to the PS/2 Control register to enable interrupts */
}
void pushbutton_ISR(void) {
    volatile int *KEY_ptr = (int *) KEY_BASE;
    int press;
    press = *(KEY_ptr + 3); // read the pushbutton interrupt register
     2cc:	e3a03000 	mov	r3, #0
     2d0:	e34f3f20 	movt	r3, #65312	; 0xff20
     2d4:	e593205c 	ldr	r2, [r3, #92]	; 0x5c
    *(KEY_ptr + 3) = press; // Clear the interrupt
     2d8:	e583205c 	str	r2, [r3, #92]	; 0x5c
    key_dir ^= 1; // Toggle key_dir value
     2dc:	e3013eac 	movw	r3, #7852	; 0x1eac
     2e0:	e3403009 	movt	r3, #9
     2e4:	e5932000 	ldr	r2, [r3]
     2e8:	e2222001 	eor	r2, r2, #1
     2ec:	e5832000 	str	r2, [r3]
     2f0:	e12fff1e 	bx	lr

000002f4 <PS2_ISR>:

void PS2_ISR(void) {
    volatile int * PS2_ptr = (int *) 0xFF200100;		// PS/2 port address
    int PS2_data, RAVAIL;

    PS2_data = *(PS2_ptr);									// read the Data register in the PS/2 port
     2f4:	e3a03000 	mov	r3, #0
     2f8:	e34f3f20 	movt	r3, #65312	; 0xff20
     2fc:	e5932100 	ldr	r2, [r3, #256]	; 0x100
    RAVAIL = (PS2_data & 0xFFFF0000) >> 16;			// extract the RAVAIL field
    if (RAVAIL > 0)
     300:	e1b03822 	lsrs	r3, r2, #16
     304:	012fff1e 	bxeq	lr
    {
        /* always save the last three bytes received */
        byte1 = byte2;
     308:	e3013eac 	movw	r3, #7852	; 0x1eac
     30c:	e3403009 	movt	r3, #9
     310:	e5d31005 	ldrb	r1, [r3, #5]
     314:	e5c31004 	strb	r1, [r3, #4]
        byte2 = byte3;
     318:	e5d31006 	ldrb	r1, [r3, #6]
     31c:	e5c31005 	strb	r1, [r3, #5]
        byte3 = PS2_data & 0xFF;
     320:	e6ef2072 	uxtb	r2, r2
     324:	e5c32006 	strb	r2, [r3, #6]
        if ((byte2 == (char) 0xE0) && (byte3 == (char) 0x75)) {
     328:	e35100e0 	cmp	r1, #224	; 0xe0
     32c:	112fff1e 	bxne	lr
     330:	e3520075 	cmp	r2, #117	; 0x75
     334:	1a000004 	bne	34c <PS2_ISR+0x58>
            KEYBOARD_UP = true;
     338:	e3013eac 	movw	r3, #7852	; 0x1eac
     33c:	e3403009 	movt	r3, #9
     340:	e3a02001 	mov	r2, #1
     344:	e5c32007 	strb	r2, [r3, #7]
     348:	e12fff1e 	bx	lr
        } else if((byte2 == (char) 0xE0) && (byte3 == (char) 0x72)){
     34c:	e3520072 	cmp	r2, #114	; 0x72
     350:	1a000004 	bne	368 <PS2_ISR+0x74>
            KEYBOARD_DOWN = true;
     354:	e3013eac 	movw	r3, #7852	; 0x1eac
     358:	e3403009 	movt	r3, #9
     35c:	e3a02001 	mov	r2, #1
     360:	e5c32008 	strb	r2, [r3, #8]
     364:	e12fff1e 	bx	lr
        } else if((byte2 == (char) 0xE0) && (byte3 == (char) 0x6B)){
     368:	e352006b 	cmp	r2, #107	; 0x6b
     36c:	1a000004 	bne	384 <PS2_ISR+0x90>
            KEYBOARD_LEFT = true;
     370:	e3013eac 	movw	r3, #7852	; 0x1eac
     374:	e3403009 	movt	r3, #9
     378:	e3a02001 	mov	r2, #1
     37c:	e5c32009 	strb	r2, [r3, #9]
     380:	e12fff1e 	bx	lr
        } else if((byte2 == (char) 0xE0) && (byte3 == (char) 0x74)){
     384:	e3520074 	cmp	r2, #116	; 0x74
     388:	1a000004 	bne	3a0 <PS2_ISR+0xac>
            KEYBOARD_RIGHT = true;
     38c:	e3013eac 	movw	r3, #7852	; 0x1eac
     390:	e3403009 	movt	r3, #9
     394:	e3a02001 	mov	r2, #1
     398:	e5c3200a 	strb	r2, [r3, #10]
     39c:	e12fff1e 	bx	lr
        } else if((byte2 == (char) 0xE0) && (byte3 == (char) 0x69)){
     3a0:	e3520069 	cmp	r2, #105	; 0x69
            KEYBOARD_RESTART = true;
     3a4:	03013eac 	movweq	r3, #7852	; 0x1eac
     3a8:	03403009 	movteq	r3, #9
     3ac:	03a02001 	moveq	r2, #1
     3b0:	05c3200b 	strbeq	r2, [r3, #11]
     3b4:	e12fff1e 	bx	lr

000003b8 <__cs3_isr_irq>:

void PS2_ISR();

// Define the IRQ exception handler
void __attribute__ ((interrupt)) __cs3_isr_irq (void)
{
     3b8:	e24ee004 	sub	lr, lr, #4
     3bc:	e92d500f 	push	{r0, r1, r2, r3, r12, lr}
    // Read the ICCIAR from the processor interface
    int address = MPCORE_GIC_CPUIF + ICCIAR;
    int int_ID = *((int *) address);
     3c0:	e3e03a13 	mvn	r3, #77824	; 0x13000

    if (int_ID == PS2_IRQ)				// check if interrupt is from the PS/2
     3c4:	e5133ef3 	ldr	r3, [r3, #-3827]	; 0xfffff10d
     3c8:	e353004f 	cmp	r3, #79	; 0x4f
     3cc:	1a000004 	bne	3e4 <__cs3_isr_irq+0x2c>
        PS2_ISR ();
     3d0:	ebffffc7 	bl	2f4 <PS2_ISR>
    else
        while (1);									// if unexpected, then halt

    // Write to the End of Interrupt Register (ICCEOIR)
    address = MPCORE_GIC_CPUIF + ICCEOIR;
    *((int *) address) = int_ID;
     3d4:	e3a0204f 	mov	r2, #79	; 0x4f
     3d8:	e3e03a13 	mvn	r3, #77824	; 0x13000
     3dc:	e5032eef 	str	r2, [r3, #-3823]	; 0xfffff111
     3e0:	e8fd900f 	ldm	sp!, {r0, r1, r2, r3, r12, pc}^
     3e4:	eafffffe 	b	3e4 <__cs3_isr_irq+0x2c>

000003e8 <hw_write_bits>:
    address = MPCORE_GIC_DIST + addr_offset;
    hw_write_bits((int *) address, 0x1 << (int_ID & 0x1f), value);
}

void hw_write_bits(volatile int * addr, volatile int unmask, volatile int value)
{
     3e8:	e24dd008 	sub	sp, sp, #8
     3ec:	e58d1004 	str	r1, [sp, #4]
     3f0:	e58d2000 	str	r2, [sp]
    *addr = ((~unmask) & *addr) | value;
     3f4:	e59d1004 	ldr	r1, [sp, #4]
     3f8:	e5903000 	ldr	r3, [r0]
     3fc:	e59d2000 	ldr	r2, [sp]
     400:	e1c33001 	bic	r3, r3, r1
     404:	e1833002 	orr	r3, r3, r2
     408:	e5803000 	str	r3, [r0]
}
     40c:	e28dd008 	add	sp, sp, #8
     410:	e12fff1e 	bx	lr

00000414 <config_interrupt>:

/*
 * Configure registers in the GIC for individual interrupt IDs.
*/
void config_interrupt (int int_ID, int CPU_target)
{
     414:	e92d4010 	push	{r4, lr}
     418:	e1a04000 	mov	r4, r0
     * addr_offet = #ICDIPTR + n
     * value = CPU_target << ((int_ID & 0x3) * 8)
     */
    n = (int_ID >> 2) << 2;
    addr_offset = ICDIPTR + n;
    value = CPU_target << ((int_ID & 0x3) << 3);
     41c:	e2003003 	and	r3, r0, #3
     420:	e1a03183 	lsl	r3, r3, #3
    /* Set Interrupt Processor Targets Register (ICDIPTRn) to cpu0.
     * n = integer_div(int_ID / 4) * 4
     * addr_offet = #ICDIPTR + n
     * value = CPU_target << ((int_ID & 0x3) * 8)
     */
    n = (int_ID >> 2) << 2;
     424:	e3c00003 	bic	r0, r0, #3
    addr_offset = ICDIPTR + n;
    value = CPU_target << ((int_ID & 0x3) << 3);
     428:	e1a02311 	lsl	r2, r1, r3

    /* Now that we know the register address and value, we need to set the correct bits in
     * the GIC register, without changing the other bits */
    address = MPCORE_GIC_DIST + addr_offset;
    hw_write_bits((int *) address, 0xff << ((int_ID & 0x3) << 3), value);
     42c:	e2400b4a 	sub	r0, r0, #75776	; 0x12800
     430:	e3a010ff 	mov	r1, #255	; 0xff
     434:	e1a01311 	lsl	r1, r1, r3
     438:	ebffffea 	bl	3e8 <hw_write_bits>
     * n = (integer_div(in_ID / 32) * 4
     * addr_offset = 0x100 + n
     * value = enable << (int_ID & 0x1F) */
    n = (int_ID >> 5) << 2;
    addr_offset = ICDISER + n;
    value = 0x1 << (int_ID & 0x1f);
     43c:	e204301f 	and	r3, r4, #31
     440:	e3a02001 	mov	r2, #1
     444:	e1a02312 	lsl	r2, r2, r3

    /* Set Interrupt Set-Enable Registers (ICDISERn).
     * n = (integer_div(in_ID / 32) * 4
     * addr_offset = 0x100 + n
     * value = enable << (int_ID & 0x1F) */
    n = (int_ID >> 5) << 2;
     448:	e1a002c4 	asr	r0, r4, #5
     44c:	e1a00100 	lsl	r0, r0, #2
    addr_offset = ICDISER + n;
     450:	e2800c01 	add	r0, r0, #256	; 0x100
    value = 0x1 << (int_ID & 0x1f);
    /* Now that we know the register address and value, we need to set the correct bits in
     * the GIC register, without changing the other bits */
    address = MPCORE_GIC_DIST + addr_offset;
    hw_write_bits((int *) address, 0x1 << (int_ID & 0x1f), value);
     454:	e2400a13 	sub	r0, r0, #77824	; 0x13000
     458:	e1a01002 	mov	r1, r2
     45c:	ebffffe1 	bl	3e8 <hw_write_bits>
     460:	e8bd8010 	pop	{r4, pc}

00000464 <config_GIC>:

/*
 * Configure the Generic Interrupt Controller (GIC)
*/
void config_GIC(void)
{
     464:	e92d4008 	push	{r3, lr}
    int address;	// used to calculate register addresses

    /* enable some examples of interrupts */
    config_interrupt (PS2_IRQ, CPU0);
     468:	e3a0004f 	mov	r0, #79	; 0x4f
     46c:	e3a01001 	mov	r1, #1
     470:	ebffffe7 	bl	414 <config_interrupt>

    // Set Interrupt Priority Mask Register (ICCPMR). Enable interrupts for lowest priority
    address = MPCORE_GIC_CPUIF + ICCPMR;
    *((int *) address) = 0xFFFF;
     474:	e3e02a13 	mvn	r2, #77824	; 0x13000
     478:	e30f3fff 	movw	r3, #65535	; 0xffff
     47c:	e5023efb 	str	r3, [r2, #-3835]	; 0xfffff105

    // Set CPU Interface Control Register (ICCICR). Enable signaling of interrupts
    address = MPCORE_GIC_CPUIF + ICCICR;
    *((int *) address) = ENABLE;
     480:	e3a03001 	mov	r3, #1
     484:	e5023eff 	str	r3, [r2, #-3839]	; 0xfffff101

    // Configure the Distributor Control Register (ICDDCR) to send pending interrupts to CPUs
    address = MPCORE_GIC_DIST + ICDDCR;
    *((int *) address) = ENABLE;
     488:	e3e02a12 	mvn	r2, #73728	; 0x12000
     48c:	e5023fff 	str	r3, [r2, #-4095]	; 0xfffff001
     490:	e8bd8008 	pop	{r3, pc}

00000494 <generate_new_block>:
    print_all_block();

}

// return a randomly generate block location for 2's
int generate_new_block(){
     494:	e92d4010 	push	{r4, lr}
    int location = rand()%16;
     498:	eb0006d1 	bl	1fe4 <rand>
     49c:	e1a02fc0 	asr	r2, r0, #31
     4a0:	e1a02e22 	lsr	r2, r2, #28
     4a4:	e0800002 	add	r0, r0, r2
     4a8:	e200000f 	and	r0, r0, #15
     4ac:	e0620000 	rsb	r0, r2, r0

    while(blocks[location] != 0){
     4b0:	e3013eac 	movw	r3, #7852	; 0x1eac
     4b4:	e3403009 	movt	r3, #9
     4b8:	e0833100 	add	r3, r3, r0, lsl #2
     4bc:	e593300c 	ldr	r3, [r3, #12]
     4c0:	e3530000 	cmp	r3, #0
     4c4:	08bd8010 	popeq	{r4, pc}
     4c8:	e3014eac 	movw	r4, #7852	; 0x1eac
     4cc:	e3404009 	movt	r4, #9
        location = rand()%16;
     4d0:	eb0006c3 	bl	1fe4 <rand>
     4d4:	e1a03fc0 	asr	r3, r0, #31
     4d8:	e1a03e23 	lsr	r3, r3, #28
     4dc:	e0800003 	add	r0, r0, r3
     4e0:	e200000f 	and	r0, r0, #15
     4e4:	e0630000 	rsb	r0, r3, r0

// return a randomly generate block location for 2's
int generate_new_block(){
    int location = rand()%16;

    while(blocks[location] != 0){
     4e8:	e0843100 	add	r3, r4, r0, lsl #2
     4ec:	e593300c 	ldr	r3, [r3, #12]
     4f0:	e3530000 	cmp	r3, #0
     4f4:	1afffff5 	bne	4d0 <generate_new_block+0x3c>
        location = rand()%16;
    }
    return location;
}
     4f8:	e8bd8010 	pop	{r4, pc}

000004fc <change_block_data>:

// change row or column data of blocks
void change_block_data(int block1, int block2, int block3, int block4){
     4fc:	e92d0070 	push	{r4, r5, r6}
    // case 1: block1 empty, block2 empty, block3 empty, block4 empty
    if(blocks[block1] == 0 && blocks[block2] == 0 && blocks[block3] == 0 && blocks[block4] == 0){
     500:	e301ceac 	movw	r12, #7852	; 0x1eac
     504:	e340c009 	movt	r12, #9
     508:	e08cc100 	add	r12, r12, r0, lsl #2
     50c:	e59cc00c 	ldr	r12, [r12, #12]
     510:	e35c0000 	cmp	r12, #0
     514:	1a0000c8 	bne	83c <change_block_data+0x340>
     518:	e301ceac 	movw	r12, #7852	; 0x1eac
     51c:	e340c009 	movt	r12, #9
     520:	e08cc101 	add	r12, r12, r1, lsl #2
     524:	e59cc00c 	ldr	r12, [r12, #12]
     528:	e35c0000 	cmp	r12, #0
     52c:	1a000240 	bne	e34 <change_block_data+0x938>
     530:	e301ceac 	movw	r12, #7852	; 0x1eac
     534:	e340c009 	movt	r12, #9
     538:	e08cc102 	add	r12, r12, r2, lsl #2
     53c:	e59cc00c 	ldr	r12, [r12, #12]
     540:	e35c0000 	cmp	r12, #0
     544:	1a000233 	bne	e18 <change_block_data+0x91c>
     548:	e301ceac 	movw	r12, #7852	; 0x1eac
     54c:	e340c009 	movt	r12, #9
     550:	e08cc103 	add	r12, r12, r3, lsl #2
     554:	e59cc00c 	ldr	r12, [r12, #12]
     558:	e35c0000 	cmp	r12, #0
     55c:	1a00022d 	bne	e18 <change_block_data+0x91c>
     560:	ea000286 	b	f80 <change_block_data+0xa84>
        ;
    }

        // case 2: block1 empty, block2 empty, block3 empty, block4 occupied
    else if(blocks[block1] == 0 && blocks[block2] == 0 && blocks[block3] == 0 && blocks[block4] != 0){
     564:	e301ceac 	movw	r12, #7852	; 0x1eac
     568:	e340c009 	movt	r12, #9
     56c:	e08cc103 	add	r12, r12, r3, lsl #2
     570:	e59cc00c 	ldr	r12, [r12, #12]
     574:	e35c0000 	cmp	r12, #0
     578:	0a000234 	beq	e50 <change_block_data+0x954>
     57c:	ea00027f 	b	f80 <change_block_data+0xa84>
        ;
    }

        // case 3: block1 empty, block2 empty, block3 occupied, block4 empty
    else if(blocks[block1] == 0 && blocks[block2] == 0 && blocks[block3] != 0 && blocks[block4] == 0){
     580:	e301ceac 	movw	r12, #7852	; 0x1eac
     584:	e340c009 	movt	r12, #9
     588:	e08cc103 	add	r12, r12, r3, lsl #2
     58c:	e59cc00c 	ldr	r12, [r12, #12]
     590:	e35c0000 	cmp	r12, #0
     594:	1a000233 	bne	e68 <change_block_data+0x96c>
        blocks[block4] = blocks[block3];
     598:	e301ceac 	movw	r12, #7852	; 0x1eac
     59c:	e340c009 	movt	r12, #9
     5a0:	e08c3103 	add	r3, r12, r3, lsl #2
     5a4:	e583400c 	str	r4, [r3, #12]
        blocks[block3] = 0;
     5a8:	e08c2102 	add	r2, r12, r2, lsl #2
     5ac:	e3a03000 	mov	r3, #0
     5b0:	e582300c 	str	r3, [r2, #12]
        blocks[block2] = 0;
     5b4:	e08c1101 	add	r1, r12, r1, lsl #2
     5b8:	e581300c 	str	r3, [r1, #12]
        blocks[block1] = 0;
     5bc:	e08c0100 	add	r0, r12, r0, lsl #2
     5c0:	e580300c 	str	r3, [r0, #12]
        change = true;
     5c4:	e3a03001 	mov	r3, #1
     5c8:	e5cc304c 	strb	r3, [r12, #76]	; 0x4c
     5cc:	ea00026b 	b	f80 <change_block_data+0xa84>
    }

        // case 4: block1 empty, block2 empty, block3 occupied, block4 occupied
    else if(blocks[block1] == 0 && blocks[block2] == 0 && blocks[block3] != 0 && blocks[block4] != 0){
     5d0:	e3014eac 	movw	r4, #7852	; 0x1eac
     5d4:	e3404009 	movt	r4, #9
     5d8:	e0844103 	add	r4, r4, r3, lsl #2
     5dc:	e594400c 	ldr	r4, [r4, #12]
     5e0:	e3540000 	cmp	r4, #0
     5e4:	0a000265 	beq	f80 <change_block_data+0xa84>
        if(blocks[block4] == blocks[block3]){
     5e8:	e15c0004 	cmp	r12, r4
     5ec:	1a000263 	bne	f80 <change_block_data+0xa84>
            blocks[block4] = blocks[block4] * 2;
     5f0:	e3014eac 	movw	r4, #7852	; 0x1eac
     5f4:	e3404009 	movt	r4, #9
     5f8:	e0843103 	add	r3, r4, r3, lsl #2
     5fc:	e1a0c08c 	lsl	r12, r12, #1
     600:	e583c00c 	str	r12, [r3, #12]
            blocks[block3] = 0;
     604:	e0842102 	add	r2, r4, r2, lsl #2
     608:	e3a03000 	mov	r3, #0
     60c:	e582300c 	str	r3, [r2, #12]
            blocks[block2] = 0;
     610:	e0841101 	add	r1, r4, r1, lsl #2
     614:	e581300c 	str	r3, [r1, #12]
            blocks[block1] = 0;
     618:	e0840100 	add	r0, r4, r0, lsl #2
     61c:	e580300c 	str	r3, [r0, #12]
            change = true;
     620:	e3a03001 	mov	r3, #1
     624:	e5c4304c 	strb	r3, [r4, #76]	; 0x4c
     628:	ea000254 	b	f80 <change_block_data+0xa84>
            ;
        }
    }

        // case 5: block1 empty, block2 occupied, block3 empty, block4 empty
    else if(blocks[block1] == 0 && blocks[block2] != 0 && blocks[block3] == 0 && blocks[block4] == 0){
     62c:	e3014eac 	movw	r4, #7852	; 0x1eac
     630:	e3404009 	movt	r4, #9
     634:	e0844103 	add	r4, r4, r3, lsl #2
     638:	e594400c 	ldr	r4, [r4, #12]
     63c:	e3540000 	cmp	r4, #0
     640:	1a00020f 	bne	e84 <change_block_data+0x988>
        blocks[block4] = blocks[block2];
     644:	e3014eac 	movw	r4, #7852	; 0x1eac
     648:	e3404009 	movt	r4, #9
     64c:	e0843103 	add	r3, r4, r3, lsl #2
     650:	e583c00c 	str	r12, [r3, #12]
        blocks[block3] = 0;
     654:	e0842102 	add	r2, r4, r2, lsl #2
     658:	e3a03000 	mov	r3, #0
     65c:	e582300c 	str	r3, [r2, #12]
        blocks[block2] = 0;
     660:	e0841101 	add	r1, r4, r1, lsl #2
     664:	e581300c 	str	r3, [r1, #12]
        blocks[block1] = 0;
     668:	e0840100 	add	r0, r4, r0, lsl #2
     66c:	e580300c 	str	r3, [r0, #12]
        change = true;
     670:	e3a03001 	mov	r3, #1
     674:	e5c4304c 	strb	r3, [r4, #76]	; 0x4c
     678:	ea000240 	b	f80 <change_block_data+0xa84>
    }

        // case 6: block1 empty, block2 occupied, block3 empty, block4 occupied
    else if(blocks[block1] == 0 && blocks[block2] != 0 && blocks[block3] == 0 && blocks[block4] != 0){
     67c:	e3014eac 	movw	r4, #7852	; 0x1eac
     680:	e3404009 	movt	r4, #9
     684:	e0844103 	add	r4, r4, r3, lsl #2
     688:	e594400c 	ldr	r4, [r4, #12]
     68c:	e3540000 	cmp	r4, #0
     690:	0a000201 	beq	e9c <change_block_data+0x9a0>
        if(blocks[block4] == blocks[block2]){
     694:	e15c0004 	cmp	r12, r4
     698:	1a00000e 	bne	6d8 <change_block_data+0x1dc>
            blocks[block4] = blocks[block4] * 2;
     69c:	e3014eac 	movw	r4, #7852	; 0x1eac
     6a0:	e3404009 	movt	r4, #9
     6a4:	e0843103 	add	r3, r4, r3, lsl #2
     6a8:	e1a0c08c 	lsl	r12, r12, #1
     6ac:	e583c00c 	str	r12, [r3, #12]
            blocks[block3] = 0;
     6b0:	e0842102 	add	r2, r4, r2, lsl #2
     6b4:	e3a03000 	mov	r3, #0
     6b8:	e582300c 	str	r3, [r2, #12]
            blocks[block2] = 0;
     6bc:	e0841101 	add	r1, r4, r1, lsl #2
     6c0:	e581300c 	str	r3, [r1, #12]
            blocks[block1] = 0;
     6c4:	e0840100 	add	r0, r4, r0, lsl #2
     6c8:	e580300c 	str	r3, [r0, #12]
            change = true;
     6cc:	e3a03001 	mov	r3, #1
     6d0:	e5c4304c 	strb	r3, [r4, #76]	; 0x4c
     6d4:	ea000229 	b	f80 <change_block_data+0xa84>
        }
        else{
            blocks[block4] = blocks[block4];
            blocks[block3] = blocks[block2];
     6d8:	e3013eac 	movw	r3, #7852	; 0x1eac
     6dc:	e3403009 	movt	r3, #9
     6e0:	e0832102 	add	r2, r3, r2, lsl #2
     6e4:	e582c00c 	str	r12, [r2, #12]
            blocks[block2] = 0;
     6e8:	e0831101 	add	r1, r3, r1, lsl #2
     6ec:	e3a02000 	mov	r2, #0
     6f0:	e581200c 	str	r2, [r1, #12]
            blocks[block1] = 0;
     6f4:	e0830100 	add	r0, r3, r0, lsl #2
     6f8:	e580200c 	str	r2, [r0, #12]
            change = true;
     6fc:	e3a02001 	mov	r2, #1
     700:	e5c3204c 	strb	r2, [r3, #76]	; 0x4c
     704:	ea00021d 	b	f80 <change_block_data+0xa84>
        }
    }

        // case 7: block1 empty, block2 occupied, block3 occupied, block4 empty
    else if(blocks[block1] == 0 && blocks[block2] != 0 && blocks[block3] != 0 && blocks[block4] == 0){
     708:	e3015eac 	movw	r5, #7852	; 0x1eac
     70c:	e3405009 	movt	r5, #9
     710:	e0855103 	add	r5, r5, r3, lsl #2
     714:	e595500c 	ldr	r5, [r5, #12]
     718:	e3550000 	cmp	r5, #0
     71c:	1a0001e4 	bne	eb4 <change_block_data+0x9b8>
        if(blocks[block3] == blocks[block2]){
     720:	e15c0004 	cmp	r12, r4
     724:	1a00000e 	bne	764 <change_block_data+0x268>
            blocks[block4] = blocks[block3] * 2;
     728:	e3014eac 	movw	r4, #7852	; 0x1eac
     72c:	e3404009 	movt	r4, #9
     730:	e0843103 	add	r3, r4, r3, lsl #2
     734:	e1a0c08c 	lsl	r12, r12, #1
     738:	e583c00c 	str	r12, [r3, #12]
            blocks[block3] = 0;
     73c:	e0842102 	add	r2, r4, r2, lsl #2
     740:	e3a03000 	mov	r3, #0
     744:	e582300c 	str	r3, [r2, #12]
            blocks[block2] = 0;
     748:	e0841101 	add	r1, r4, r1, lsl #2
     74c:	e581300c 	str	r3, [r1, #12]
            blocks[block1] = 0;
     750:	e0840100 	add	r0, r4, r0, lsl #2
     754:	e580300c 	str	r3, [r0, #12]
            change = true;
     758:	e3a03001 	mov	r3, #1
     75c:	e5c4304c 	strb	r3, [r4, #76]	; 0x4c
     760:	ea000206 	b	f80 <change_block_data+0xa84>
        }
        else{
            blocks[block4] = blocks[block3];
     764:	e301ceac 	movw	r12, #7852	; 0x1eac
     768:	e340c009 	movt	r12, #9
     76c:	e08c3103 	add	r3, r12, r3, lsl #2
     770:	e583400c 	str	r4, [r3, #12]
            blocks[block3] = blocks[block2];
     774:	e08c1101 	add	r1, r12, r1, lsl #2
     778:	e591300c 	ldr	r3, [r1, #12]
     77c:	e08c2102 	add	r2, r12, r2, lsl #2
     780:	e582300c 	str	r3, [r2, #12]
            blocks[block2] = 0;
     784:	e3a03000 	mov	r3, #0
     788:	e581300c 	str	r3, [r1, #12]
            blocks[block1] = 0;
     78c:	e08c0100 	add	r0, r12, r0, lsl #2
     790:	e580300c 	str	r3, [r0, #12]
            change = true;
     794:	e3a03001 	mov	r3, #1
     798:	e5cc304c 	strb	r3, [r12, #76]	; 0x4c
     79c:	ea0001f7 	b	f80 <change_block_data+0xa84>
        }
    }

        // case 8: block1 empty, block2 occupied, block3 occupied, block4 occupied
    else if(blocks[block1] == 0 && blocks[block2] != 0 && blocks[block3] != 0 && blocks[block4] != 0){
     7a0:	e3015eac 	movw	r5, #7852	; 0x1eac
     7a4:	e3405009 	movt	r5, #9
     7a8:	e0855103 	add	r5, r5, r3, lsl #2
     7ac:	e595500c 	ldr	r5, [r5, #12]
     7b0:	e3550000 	cmp	r5, #0
     7b4:	0a0001f1 	beq	f80 <change_block_data+0xa84>
        if(blocks[block4] == blocks[block3]){
     7b8:	e1540005 	cmp	r4, r5
     7bc:	1a00000f 	bne	800 <change_block_data+0x304>
            blocks[block4] = blocks[block4] * 2;
     7c0:	e301ceac 	movw	r12, #7852	; 0x1eac
     7c4:	e340c009 	movt	r12, #9
     7c8:	e08c3103 	add	r3, r12, r3, lsl #2
     7cc:	e1a04084 	lsl	r4, r4, #1
     7d0:	e583400c 	str	r4, [r3, #12]
            blocks[block3] = blocks[block2];
     7d4:	e08c1101 	add	r1, r12, r1, lsl #2
     7d8:	e591300c 	ldr	r3, [r1, #12]
     7dc:	e08c2102 	add	r2, r12, r2, lsl #2
     7e0:	e582300c 	str	r3, [r2, #12]
            blocks[block2] = 0;
     7e4:	e3a03000 	mov	r3, #0
     7e8:	e581300c 	str	r3, [r1, #12]
            blocks[block1] = 0;
     7ec:	e08c0100 	add	r0, r12, r0, lsl #2
     7f0:	e580300c 	str	r3, [r0, #12]
            change = true;
     7f4:	e3a03001 	mov	r3, #1
     7f8:	e5cc304c 	strb	r3, [r12, #76]	; 0x4c
     7fc:	ea0001df 	b	f80 <change_block_data+0xa84>
        }
        else if(blocks[block4] != blocks[block3] && blocks[block3] == blocks[block2]){
     800:	e15c0004 	cmp	r12, r4
     804:	1a0001dd 	bne	f80 <change_block_data+0xa84>
            blocks[block4] = blocks[block4];
            blocks[block3] = blocks[block3] * 2;
     808:	e3013eac 	movw	r3, #7852	; 0x1eac
     80c:	e3403009 	movt	r3, #9
     810:	e0832102 	add	r2, r3, r2, lsl #2
     814:	e1a0c08c 	lsl	r12, r12, #1
     818:	e582c00c 	str	r12, [r2, #12]
            blocks[block2] = 0;
     81c:	e0831101 	add	r1, r3, r1, lsl #2
     820:	e3a02000 	mov	r2, #0
     824:	e581200c 	str	r2, [r1, #12]
            blocks[block1] = 0;
     828:	e0830100 	add	r0, r3, r0, lsl #2
     82c:	e580200c 	str	r2, [r0, #12]
            change = true;
     830:	e3a02001 	mov	r2, #1
     834:	e5c3204c 	strb	r2, [r3, #76]	; 0x4c
     838:	ea0001d0 	b	f80 <change_block_data+0xa84>
            ;
        }
    }

        // case 9: block1 occupied, block2 empty, block3 empty, block4 empty
    else if(blocks[block1] != 0 && blocks[block2] == 0 && blocks[block3] == 0 && blocks[block4] == 0){
     83c:	e3014eac 	movw	r4, #7852	; 0x1eac
     840:	e3404009 	movt	r4, #9
     844:	e0844101 	add	r4, r4, r1, lsl #2
     848:	e594400c 	ldr	r4, [r4, #12]
     84c:	e3540000 	cmp	r4, #0
     850:	1a00019e 	bne	ed0 <change_block_data+0x9d4>
     854:	e3014eac 	movw	r4, #7852	; 0x1eac
     858:	e3404009 	movt	r4, #9
     85c:	e0844102 	add	r4, r4, r2, lsl #2
     860:	e594400c 	ldr	r4, [r4, #12]
     864:	e3540000 	cmp	r4, #0
     868:	1a00019f 	bne	eec <change_block_data+0x9f0>
     86c:	e3014eac 	movw	r4, #7852	; 0x1eac
     870:	e3404009 	movt	r4, #9
     874:	e0844103 	add	r4, r4, r3, lsl #2
     878:	e594400c 	ldr	r4, [r4, #12]
     87c:	e3540000 	cmp	r4, #0
     880:	1a000199 	bne	eec <change_block_data+0x9f0>
        blocks[block4] = blocks[block1];
     884:	e3014eac 	movw	r4, #7852	; 0x1eac
     888:	e3404009 	movt	r4, #9
     88c:	e0843103 	add	r3, r4, r3, lsl #2
     890:	e583c00c 	str	r12, [r3, #12]
        blocks[block3] = 0;
     894:	e0842102 	add	r2, r4, r2, lsl #2
     898:	e3a03000 	mov	r3, #0
     89c:	e582300c 	str	r3, [r2, #12]
        blocks[block2] = 0;
     8a0:	e0841101 	add	r1, r4, r1, lsl #2
     8a4:	e581300c 	str	r3, [r1, #12]
        blocks[block1] = 0;
     8a8:	e0840100 	add	r0, r4, r0, lsl #2
     8ac:	e580300c 	str	r3, [r0, #12]
        change = true;
     8b0:	e3a03001 	mov	r3, #1
     8b4:	e5c4304c 	strb	r3, [r4, #76]	; 0x4c
     8b8:	ea0001b0 	b	f80 <change_block_data+0xa84>
    }

        // case 10: block1 occupied, block2 empty, block3 empty, block4 occupied
    else if(blocks[block1] != 0 && blocks[block2] == 0 && blocks[block3] == 0 && blocks[block4] != 0){
     8bc:	e3014eac 	movw	r4, #7852	; 0x1eac
     8c0:	e3404009 	movt	r4, #9
     8c4:	e0844103 	add	r4, r4, r3, lsl #2
     8c8:	e594400c 	ldr	r4, [r4, #12]
     8cc:	e3540000 	cmp	r4, #0
     8d0:	0a00018b 	beq	f04 <change_block_data+0xa08>
        if(blocks[block4] == blocks[block1]){
     8d4:	e15c0004 	cmp	r12, r4
     8d8:	1a00000e 	bne	918 <change_block_data+0x41c>
            blocks[block4] = blocks[block4] * 2;
     8dc:	e3014eac 	movw	r4, #7852	; 0x1eac
     8e0:	e3404009 	movt	r4, #9
     8e4:	e0843103 	add	r3, r4, r3, lsl #2
     8e8:	e1a0c08c 	lsl	r12, r12, #1
     8ec:	e583c00c 	str	r12, [r3, #12]
            blocks[block3] = 0;
     8f0:	e0842102 	add	r2, r4, r2, lsl #2
     8f4:	e3a03000 	mov	r3, #0
     8f8:	e582300c 	str	r3, [r2, #12]
            blocks[block2] = 0;
     8fc:	e0841101 	add	r1, r4, r1, lsl #2
     900:	e581300c 	str	r3, [r1, #12]
            blocks[block1] = 0;
     904:	e0840100 	add	r0, r4, r0, lsl #2
     908:	e580300c 	str	r3, [r0, #12]
            change = true;
     90c:	e3a03001 	mov	r3, #1
     910:	e5c4304c 	strb	r3, [r4, #76]	; 0x4c
     914:	ea000199 	b	f80 <change_block_data+0xa84>
        }
        else{
            blocks[block4] = blocks[block4];
            blocks[block3] = blocks[block1];
     918:	e3013eac 	movw	r3, #7852	; 0x1eac
     91c:	e3403009 	movt	r3, #9
     920:	e0832102 	add	r2, r3, r2, lsl #2
     924:	e582c00c 	str	r12, [r2, #12]
            blocks[block2] = 0;
     928:	e0831101 	add	r1, r3, r1, lsl #2
     92c:	e3a02000 	mov	r2, #0
     930:	e581200c 	str	r2, [r1, #12]
            blocks[block1] = 0;
     934:	e0830100 	add	r0, r3, r0, lsl #2
     938:	e580200c 	str	r2, [r0, #12]
            change = true;
     93c:	e3a02001 	mov	r2, #1
     940:	e5c3204c 	strb	r2, [r3, #76]	; 0x4c
     944:	ea00018d 	b	f80 <change_block_data+0xa84>
        }
    }

        // case 11: block1 occupied, block2 empty, block3 occupied, block4 empty
    else if(blocks[block1] != 0 && blocks[block2] == 0 && blocks[block3] != 0 && blocks[block4] == 0){
     948:	e3015eac 	movw	r5, #7852	; 0x1eac
     94c:	e3405009 	movt	r5, #9
     950:	e0855103 	add	r5, r5, r3, lsl #2
     954:	e595500c 	ldr	r5, [r5, #12]
     958:	e3550000 	cmp	r5, #0
     95c:	1a00016e 	bne	f1c <change_block_data+0xa20>
        if(blocks[block3] == blocks[block1]){
     960:	e15c0004 	cmp	r12, r4
     964:	1a00000e 	bne	9a4 <change_block_data+0x4a8>
            blocks[block4] = blocks[block3] * 2;
     968:	e3014eac 	movw	r4, #7852	; 0x1eac
     96c:	e3404009 	movt	r4, #9
     970:	e0843103 	add	r3, r4, r3, lsl #2
     974:	e1a0c08c 	lsl	r12, r12, #1
     978:	e583c00c 	str	r12, [r3, #12]
            blocks[block3] = 0;
     97c:	e0842102 	add	r2, r4, r2, lsl #2
     980:	e3a03000 	mov	r3, #0
     984:	e582300c 	str	r3, [r2, #12]
            blocks[block2] = 0;
     988:	e0841101 	add	r1, r4, r1, lsl #2
     98c:	e581300c 	str	r3, [r1, #12]
            blocks[block1] = 0;
     990:	e0840100 	add	r0, r4, r0, lsl #2
     994:	e580300c 	str	r3, [r0, #12]
            change = true;
     998:	e3a03001 	mov	r3, #1
     99c:	e5c4304c 	strb	r3, [r4, #76]	; 0x4c
     9a0:	ea000176 	b	f80 <change_block_data+0xa84>
        }
        else{
            blocks[block4] = blocks[block3];
     9a4:	e301ceac 	movw	r12, #7852	; 0x1eac
     9a8:	e340c009 	movt	r12, #9
     9ac:	e08c3103 	add	r3, r12, r3, lsl #2
     9b0:	e583400c 	str	r4, [r3, #12]
            blocks[block3] = blocks[block1];
     9b4:	e08c0100 	add	r0, r12, r0, lsl #2
     9b8:	e590300c 	ldr	r3, [r0, #12]
     9bc:	e08c2102 	add	r2, r12, r2, lsl #2
     9c0:	e582300c 	str	r3, [r2, #12]
            blocks[block2] = 0;
     9c4:	e08c1101 	add	r1, r12, r1, lsl #2
     9c8:	e3a03000 	mov	r3, #0
     9cc:	e581300c 	str	r3, [r1, #12]
            blocks[block1] = 0;
     9d0:	e580300c 	str	r3, [r0, #12]
            change = true;
     9d4:	e3a03001 	mov	r3, #1
     9d8:	e5cc304c 	strb	r3, [r12, #76]	; 0x4c
     9dc:	ea000167 	b	f80 <change_block_data+0xa84>
        }
    }

        // case 12: block1 occupied, block2 empty, block3 occupied, block4 occupied
    else if(blocks[block1] != 0 && blocks[block2] == 0 && blocks[block3] != 0 && blocks[block4] != 0){
     9e0:	e3015eac 	movw	r5, #7852	; 0x1eac
     9e4:	e3405009 	movt	r5, #9
     9e8:	e0855103 	add	r5, r5, r3, lsl #2
     9ec:	e595500c 	ldr	r5, [r5, #12]
     9f0:	e3550000 	cmp	r5, #0
     9f4:	0a000161 	beq	f80 <change_block_data+0xa84>
        if(blocks[block4] == blocks[block3]){
     9f8:	e1540005 	cmp	r4, r5
     9fc:	1a00000f 	bne	a40 <change_block_data+0x544>
            blocks[block4] = blocks[block4] * 2;
     a00:	e301ceac 	movw	r12, #7852	; 0x1eac
     a04:	e340c009 	movt	r12, #9
     a08:	e08c3103 	add	r3, r12, r3, lsl #2
     a0c:	e1a04084 	lsl	r4, r4, #1
     a10:	e583400c 	str	r4, [r3, #12]
            blocks[block3] = blocks[block1];
     a14:	e08c0100 	add	r0, r12, r0, lsl #2
     a18:	e590300c 	ldr	r3, [r0, #12]
     a1c:	e08c2102 	add	r2, r12, r2, lsl #2
     a20:	e582300c 	str	r3, [r2, #12]
            blocks[block2] = 0;
     a24:	e08c1101 	add	r1, r12, r1, lsl #2
     a28:	e3a03000 	mov	r3, #0
     a2c:	e581300c 	str	r3, [r1, #12]
            blocks[block1] = 0;
     a30:	e580300c 	str	r3, [r0, #12]
            change = true;
     a34:	e3a03001 	mov	r3, #1
     a38:	e5cc304c 	strb	r3, [r12, #76]	; 0x4c
     a3c:	ea00014f 	b	f80 <change_block_data+0xa84>
        }
        else if(blocks[block4] != blocks[block3] && blocks[block3] == blocks[block1]){
     a40:	e15c0004 	cmp	r12, r4
     a44:	1a00000c 	bne	a7c <change_block_data+0x580>
            blocks[block4] = blocks[block4];
            blocks[block3] = blocks[block3] * 2;
     a48:	e3013eac 	movw	r3, #7852	; 0x1eac
     a4c:	e3403009 	movt	r3, #9
     a50:	e0832102 	add	r2, r3, r2, lsl #2
     a54:	e1a0c08c 	lsl	r12, r12, #1
     a58:	e582c00c 	str	r12, [r2, #12]
            blocks[block2] = 0;
     a5c:	e0831101 	add	r1, r3, r1, lsl #2
     a60:	e3a02000 	mov	r2, #0
     a64:	e581200c 	str	r2, [r1, #12]
            blocks[block1] = 0;
     a68:	e0830100 	add	r0, r3, r0, lsl #2
     a6c:	e580200c 	str	r2, [r0, #12]
            change = true;
     a70:	e3a02001 	mov	r2, #1
     a74:	e5c3204c 	strb	r2, [r3, #76]	; 0x4c
     a78:	ea000140 	b	f80 <change_block_data+0xa84>
        }
        else{
            blocks[block4] = blocks[block4];
            blocks[block3] = blocks[block3];
            blocks[block2] = blocks[block1];
     a7c:	e3013eac 	movw	r3, #7852	; 0x1eac
     a80:	e3403009 	movt	r3, #9
     a84:	e0831101 	add	r1, r3, r1, lsl #2
     a88:	e581c00c 	str	r12, [r1, #12]
            blocks[block1] = 0;
     a8c:	e0830100 	add	r0, r3, r0, lsl #2
     a90:	e3a02000 	mov	r2, #0
     a94:	e580200c 	str	r2, [r0, #12]
            change = true;
     a98:	e3a02001 	mov	r2, #1
     a9c:	e5c3204c 	strb	r2, [r3, #76]	; 0x4c
     aa0:	ea000136 	b	f80 <change_block_data+0xa84>
        }
    }

        // case 13: block1 occupied, block2 occupied, block3 empty, block4 empty
    else if(blocks[block1] != 0 && blocks[block2] != 0 && blocks[block3] == 0 && blocks[block4] == 0){
     aa4:	e3015eac 	movw	r5, #7852	; 0x1eac
     aa8:	e3405009 	movt	r5, #9
     aac:	e0855103 	add	r5, r5, r3, lsl #2
     ab0:	e595500c 	ldr	r5, [r5, #12]
     ab4:	e3550000 	cmp	r5, #0
     ab8:	1a00011e 	bne	f38 <change_block_data+0xa3c>
        if(blocks[block2] == blocks[block1]){
     abc:	e15c0004 	cmp	r12, r4
     ac0:	1a00000e 	bne	b00 <change_block_data+0x604>
            blocks[block4] = blocks[block2] * 2;
     ac4:	e3014eac 	movw	r4, #7852	; 0x1eac
     ac8:	e3404009 	movt	r4, #9
     acc:	e0843103 	add	r3, r4, r3, lsl #2
     ad0:	e1a0c08c 	lsl	r12, r12, #1
     ad4:	e583c00c 	str	r12, [r3, #12]
            blocks[block3] = 0;
     ad8:	e0842102 	add	r2, r4, r2, lsl #2
     adc:	e3a03000 	mov	r3, #0
     ae0:	e582300c 	str	r3, [r2, #12]
            blocks[block2] = 0;
     ae4:	e0841101 	add	r1, r4, r1, lsl #2
     ae8:	e581300c 	str	r3, [r1, #12]
            blocks[block1] = 0;
     aec:	e0840100 	add	r0, r4, r0, lsl #2
     af0:	e580300c 	str	r3, [r0, #12]
            change = true;
     af4:	e3a03001 	mov	r3, #1
     af8:	e5c4304c 	strb	r3, [r4, #76]	; 0x4c
     afc:	ea00011f 	b	f80 <change_block_data+0xa84>
        }
        else{
            blocks[block4] = blocks[block2];
     b00:	e301ceac 	movw	r12, #7852	; 0x1eac
     b04:	e340c009 	movt	r12, #9
     b08:	e08c3103 	add	r3, r12, r3, lsl #2
     b0c:	e583400c 	str	r4, [r3, #12]
            blocks[block3] = blocks[block1];
     b10:	e08c0100 	add	r0, r12, r0, lsl #2
     b14:	e590300c 	ldr	r3, [r0, #12]
     b18:	e08c2102 	add	r2, r12, r2, lsl #2
     b1c:	e582300c 	str	r3, [r2, #12]
            blocks[block2] = 0;
     b20:	e08c1101 	add	r1, r12, r1, lsl #2
     b24:	e3a03000 	mov	r3, #0
     b28:	e581300c 	str	r3, [r1, #12]
            blocks[block1] = 0;
     b2c:	e580300c 	str	r3, [r0, #12]
            change = true;
     b30:	e3a03001 	mov	r3, #1
     b34:	e5cc304c 	strb	r3, [r12, #76]	; 0x4c
     b38:	ea000110 	b	f80 <change_block_data+0xa84>
        }
    }

        // case 14: block1 occupied, block2 occupied, block3 empty, block4 occupied
    else if(blocks[block1] != 0 && blocks[block2] != 0 && blocks[block3] == 0 && blocks[block4] != 0){
     b3c:	e3015eac 	movw	r5, #7852	; 0x1eac
     b40:	e3405009 	movt	r5, #9
     b44:	e0855103 	add	r5, r5, r3, lsl #2
     b48:	e595500c 	ldr	r5, [r5, #12]
     b4c:	e3550000 	cmp	r5, #0
     b50:	0a0000fe 	beq	f50 <change_block_data+0xa54>
        if(blocks[block4] == blocks[block2]){
     b54:	e1540005 	cmp	r4, r5
     b58:	1a00000f 	bne	b9c <change_block_data+0x6a0>
            blocks[block4] = blocks[block4] * 2;
     b5c:	e301ceac 	movw	r12, #7852	; 0x1eac
     b60:	e340c009 	movt	r12, #9
     b64:	e08c3103 	add	r3, r12, r3, lsl #2
     b68:	e1a04084 	lsl	r4, r4, #1
     b6c:	e583400c 	str	r4, [r3, #12]
            blocks[block3] = blocks[block1];
     b70:	e08c0100 	add	r0, r12, r0, lsl #2
     b74:	e590300c 	ldr	r3, [r0, #12]
     b78:	e08c2102 	add	r2, r12, r2, lsl #2
     b7c:	e582300c 	str	r3, [r2, #12]
            blocks[block2] = 0;
     b80:	e08c1101 	add	r1, r12, r1, lsl #2
     b84:	e3a03000 	mov	r3, #0
     b88:	e581300c 	str	r3, [r1, #12]
            blocks[block1] = 0;
     b8c:	e580300c 	str	r3, [r0, #12]
            change = true;
     b90:	e3a03001 	mov	r3, #1
     b94:	e5cc304c 	strb	r3, [r12, #76]	; 0x4c
     b98:	ea0000f8 	b	f80 <change_block_data+0xa84>
        }
        else if(blocks[block4] != blocks[block2] && blocks[block2] == blocks[block1]){
     b9c:	e15c0004 	cmp	r12, r4
     ba0:	1a00000c 	bne	bd8 <change_block_data+0x6dc>
            blocks[block4] = blocks[block4];
            blocks[block3] = blocks[block2] * 2;
     ba4:	e3013eac 	movw	r3, #7852	; 0x1eac
     ba8:	e3403009 	movt	r3, #9
     bac:	e0832102 	add	r2, r3, r2, lsl #2
     bb0:	e1a0c08c 	lsl	r12, r12, #1
     bb4:	e582c00c 	str	r12, [r2, #12]
            blocks[block2] = 0;
     bb8:	e0831101 	add	r1, r3, r1, lsl #2
     bbc:	e3a02000 	mov	r2, #0
     bc0:	e581200c 	str	r2, [r1, #12]
            blocks[block1] = 0;
     bc4:	e0830100 	add	r0, r3, r0, lsl #2
     bc8:	e580200c 	str	r2, [r0, #12]
            change = true;
     bcc:	e3a02001 	mov	r2, #1
     bd0:	e5c3204c 	strb	r2, [r3, #76]	; 0x4c
     bd4:	ea0000e9 	b	f80 <change_block_data+0xa84>
        }
        else{
            blocks[block4] = blocks[block4];
            blocks[block3] = blocks[block2];
     bd8:	e3013eac 	movw	r3, #7852	; 0x1eac
     bdc:	e3403009 	movt	r3, #9
     be0:	e0832102 	add	r2, r3, r2, lsl #2
     be4:	e582400c 	str	r4, [r2, #12]
            blocks[block2] = blocks[block1];
     be8:	e0830100 	add	r0, r3, r0, lsl #2
     bec:	e590200c 	ldr	r2, [r0, #12]
     bf0:	e0831101 	add	r1, r3, r1, lsl #2
     bf4:	e581200c 	str	r2, [r1, #12]
            blocks[block1] = 0;
     bf8:	e3a02000 	mov	r2, #0
     bfc:	e580200c 	str	r2, [r0, #12]
            change = true;
     c00:	e3a02001 	mov	r2, #1
     c04:	e5c3204c 	strb	r2, [r3, #76]	; 0x4c
     c08:	ea0000dc 	b	f80 <change_block_data+0xa84>
        }
    }

        // case 15: block1 occupied, block2 occupied, block3 occupied, block4 empty
    else if(blocks[block1] != 0 && blocks[block2] != 0 && blocks[block3] != 0 && blocks[block4] == 0){
     c0c:	e3016eac 	movw	r6, #7852	; 0x1eac
     c10:	e3406009 	movt	r6, #9
     c14:	e0866103 	add	r6, r6, r3, lsl #2
     c18:	e596600c 	ldr	r6, [r6, #12]
     c1c:	e3560000 	cmp	r6, #0
     c20:	1a0000d0 	bne	f68 <change_block_data+0xa6c>
        if(blocks[block3] == blocks[block2]){
     c24:	e1540005 	cmp	r4, r5
     c28:	1a00000f 	bne	c6c <change_block_data+0x770>
            blocks[block4] = blocks[block3] * 2;
     c2c:	e301ceac 	movw	r12, #7852	; 0x1eac
     c30:	e340c009 	movt	r12, #9
     c34:	e08c3103 	add	r3, r12, r3, lsl #2
     c38:	e1a04084 	lsl	r4, r4, #1
     c3c:	e583400c 	str	r4, [r3, #12]
            blocks[block3] = blocks[block1];
     c40:	e08c0100 	add	r0, r12, r0, lsl #2
     c44:	e590300c 	ldr	r3, [r0, #12]
     c48:	e08c2102 	add	r2, r12, r2, lsl #2
     c4c:	e582300c 	str	r3, [r2, #12]
            blocks[block2] = 0;
     c50:	e08c1101 	add	r1, r12, r1, lsl #2
     c54:	e3a03000 	mov	r3, #0
     c58:	e581300c 	str	r3, [r1, #12]
            blocks[block1] = 0;
     c5c:	e580300c 	str	r3, [r0, #12]
            change = true;
     c60:	e3a03001 	mov	r3, #1
     c64:	e5cc304c 	strb	r3, [r12, #76]	; 0x4c
     c68:	ea0000c4 	b	f80 <change_block_data+0xa84>
        }
        else if(blocks[block3] != blocks[block2] && blocks[block2] == blocks[block1]){
     c6c:	e15c0004 	cmp	r12, r4
     c70:	1a00000f 	bne	cb4 <change_block_data+0x7b8>
            blocks[block4] = blocks[block3];
     c74:	e301ceac 	movw	r12, #7852	; 0x1eac
     c78:	e340c009 	movt	r12, #9
     c7c:	e08c3103 	add	r3, r12, r3, lsl #2
     c80:	e583500c 	str	r5, [r3, #12]
            blocks[block3] = blocks[block2] * 2;
     c84:	e08c2102 	add	r2, r12, r2, lsl #2
     c88:	e08c1101 	add	r1, r12, r1, lsl #2
     c8c:	e591300c 	ldr	r3, [r1, #12]
     c90:	e1a03083 	lsl	r3, r3, #1
     c94:	e582300c 	str	r3, [r2, #12]
            blocks[block2] = 0;
     c98:	e3a03000 	mov	r3, #0
     c9c:	e581300c 	str	r3, [r1, #12]
            blocks[block1] = 0;
     ca0:	e08c0100 	add	r0, r12, r0, lsl #2
     ca4:	e580300c 	str	r3, [r0, #12]
            change = true;
     ca8:	e3a03001 	mov	r3, #1
     cac:	e5cc304c 	strb	r3, [r12, #76]	; 0x4c
     cb0:	ea0000b2 	b	f80 <change_block_data+0xa84>
        }
        else{
            blocks[block4] = blocks[block3];
     cb4:	e301ceac 	movw	r12, #7852	; 0x1eac
     cb8:	e340c009 	movt	r12, #9
     cbc:	e08c3103 	add	r3, r12, r3, lsl #2
     cc0:	e583500c 	str	r5, [r3, #12]
            blocks[block3] = blocks[block2];
     cc4:	e08c1101 	add	r1, r12, r1, lsl #2
     cc8:	e591300c 	ldr	r3, [r1, #12]
     ccc:	e08c2102 	add	r2, r12, r2, lsl #2
     cd0:	e582300c 	str	r3, [r2, #12]
            blocks[block2] = blocks[block1];
     cd4:	e08c0100 	add	r0, r12, r0, lsl #2
     cd8:	e590300c 	ldr	r3, [r0, #12]
     cdc:	e581300c 	str	r3, [r1, #12]
            blocks[block1] = 0;
     ce0:	e3a03000 	mov	r3, #0
     ce4:	e580300c 	str	r3, [r0, #12]
            change = true;
     ce8:	e3a03001 	mov	r3, #1
     cec:	e5cc304c 	strb	r3, [r12, #76]	; 0x4c
     cf0:	ea0000a2 	b	f80 <change_block_data+0xa84>
        }
    }

        // case 16: block1 occupied, block2 occupied, block3 occupied, block4 occupied
    else if(blocks[block1] != 0 && blocks[block2] != 0 && blocks[block3] != 0 && blocks[block4] != 0){
     cf4:	e3015eac 	movw	r5, #7852	; 0x1eac
     cf8:	e3405009 	movt	r5, #9
     cfc:	e0855103 	add	r5, r5, r3, lsl #2
     d00:	e595500c 	ldr	r5, [r5, #12]
     d04:	e3550000 	cmp	r5, #0
     d08:	0a00009c 	beq	f80 <change_block_data+0xa84>
        if(blocks[block4] == blocks[block3] && blocks[block2] == blocks[block1]){
     d0c:	e1560005 	cmp	r6, r5
     d10:	1a000023 	bne	da4 <change_block_data+0x8a8>
     d14:	e15c0004 	cmp	r12, r4
     d18:	1a000010 	bne	d60 <change_block_data+0x864>
            blocks[block4] = blocks[block4] * 2;
     d1c:	e301ceac 	movw	r12, #7852	; 0x1eac
     d20:	e340c009 	movt	r12, #9
     d24:	e08c3103 	add	r3, r12, r3, lsl #2
     d28:	e1a06086 	lsl	r6, r6, #1
     d2c:	e583600c 	str	r6, [r3, #12]
            blocks[block3] = blocks[block2] * 2;
     d30:	e08c2102 	add	r2, r12, r2, lsl #2
     d34:	e08c1101 	add	r1, r12, r1, lsl #2
     d38:	e591300c 	ldr	r3, [r1, #12]
     d3c:	e1a03083 	lsl	r3, r3, #1
     d40:	e582300c 	str	r3, [r2, #12]
            blocks[block2] = 0;
     d44:	e3a03000 	mov	r3, #0
     d48:	e581300c 	str	r3, [r1, #12]
            blocks[block1] = 0;
     d4c:	e08c0100 	add	r0, r12, r0, lsl #2
     d50:	e580300c 	str	r3, [r0, #12]
            change = true;
     d54:	e3a03001 	mov	r3, #1
     d58:	e5cc304c 	strb	r3, [r12, #76]	; 0x4c
     d5c:	ea000087 	b	f80 <change_block_data+0xa84>
        }
        else if(blocks[block4] == blocks[block3] && blocks[block2] != blocks[block1]){
            blocks[block4] = blocks[block4] * 2;
     d60:	e301ceac 	movw	r12, #7852	; 0x1eac
     d64:	e340c009 	movt	r12, #9
     d68:	e08c3103 	add	r3, r12, r3, lsl #2
     d6c:	e1a06086 	lsl	r6, r6, #1
     d70:	e583600c 	str	r6, [r3, #12]
            blocks[block3] = blocks[block2];
     d74:	e08c1101 	add	r1, r12, r1, lsl #2
     d78:	e591300c 	ldr	r3, [r1, #12]
     d7c:	e08c2102 	add	r2, r12, r2, lsl #2
     d80:	e582300c 	str	r3, [r2, #12]
            blocks[block2] = blocks[block1];
     d84:	e08c0100 	add	r0, r12, r0, lsl #2
     d88:	e590300c 	ldr	r3, [r0, #12]
     d8c:	e581300c 	str	r3, [r1, #12]
            blocks[block1] = 0;
     d90:	e3a03000 	mov	r3, #0
     d94:	e580300c 	str	r3, [r0, #12]
            change = true;
     d98:	e3a03001 	mov	r3, #1
     d9c:	e5cc304c 	strb	r3, [r12, #76]	; 0x4c
     da0:	ea000076 	b	f80 <change_block_data+0xa84>
        }
        else if(blocks[block4] != blocks[block3] && blocks[block3] == blocks[block2]){
     da4:	e1540006 	cmp	r4, r6
     da8:	1a00000d 	bne	de4 <change_block_data+0x8e8>
            blocks[block4] = blocks[block4];
            blocks[block3] = blocks[block3] * 2;
     dac:	e3013eac 	movw	r3, #7852	; 0x1eac
     db0:	e3403009 	movt	r3, #9
     db4:	e0832102 	add	r2, r3, r2, lsl #2
     db8:	e1a04084 	lsl	r4, r4, #1
     dbc:	e582400c 	str	r4, [r2, #12]
            blocks[block2] = blocks[block1];
     dc0:	e0830100 	add	r0, r3, r0, lsl #2
     dc4:	e590200c 	ldr	r2, [r0, #12]
     dc8:	e0831101 	add	r1, r3, r1, lsl #2
     dcc:	e581200c 	str	r2, [r1, #12]
            blocks[block1] = 0;
     dd0:	e3a02000 	mov	r2, #0
     dd4:	e580200c 	str	r2, [r0, #12]
            change = true;
     dd8:	e3a02001 	mov	r2, #1
     ddc:	e5c3204c 	strb	r2, [r3, #76]	; 0x4c
     de0:	ea000066 	b	f80 <change_block_data+0xa84>
        }
        else if(blocks[block4] != blocks[block3] && blocks[block3] != blocks[block2] && blocks[block2] == blocks[block1] ){
     de4:	e15c0004 	cmp	r12, r4
     de8:	1a000064 	bne	f80 <change_block_data+0xa84>
            blocks[block4] = blocks[block4];
            blocks[block3] = blocks[block3];
            blocks[block2] = blocks[block2] * 2;
     dec:	e3013eac 	movw	r3, #7852	; 0x1eac
     df0:	e3403009 	movt	r3, #9
     df4:	e0831101 	add	r1, r3, r1, lsl #2
     df8:	e1a0c08c 	lsl	r12, r12, #1
     dfc:	e581c00c 	str	r12, [r1, #12]
            blocks[block1] = 0;
     e00:	e0830100 	add	r0, r3, r0, lsl #2
     e04:	e3a02000 	mov	r2, #0
     e08:	e580200c 	str	r2, [r0, #12]
            change = true;
     e0c:	e3a02001 	mov	r2, #1
     e10:	e5c3204c 	strb	r2, [r3, #76]	; 0x4c
     e14:	ea000059 	b	f80 <change_block_data+0xa84>
    if(blocks[block1] == 0 && blocks[block2] == 0 && blocks[block3] == 0 && blocks[block4] == 0){
        ;
    }

        // case 2: block1 empty, block2 empty, block3 empty, block4 occupied
    else if(blocks[block1] == 0 && blocks[block2] == 0 && blocks[block3] == 0 && blocks[block4] != 0){
     e18:	e301ceac 	movw	r12, #7852	; 0x1eac
     e1c:	e340c009 	movt	r12, #9
     e20:	e08cc102 	add	r12, r12, r2, lsl #2
     e24:	e59cc00c 	ldr	r12, [r12, #12]
     e28:	e35c0000 	cmp	r12, #0
     e2c:	0afffdcc 	beq	564 <change_block_data+0x68>
     e30:	ea000006 	b	e50 <change_block_data+0x954>
            ;
        }
    }

        // case 5: block1 empty, block2 occupied, block3 empty, block4 empty
    else if(blocks[block1] == 0 && blocks[block2] != 0 && blocks[block3] == 0 && blocks[block4] == 0){
     e34:	e3014eac 	movw	r4, #7852	; 0x1eac
     e38:	e3404009 	movt	r4, #9
     e3c:	e0844102 	add	r4, r4, r2, lsl #2
     e40:	e594400c 	ldr	r4, [r4, #12]
     e44:	e3540000 	cmp	r4, #0
     e48:	0afffdf7 	beq	62c <change_block_data+0x130>
     e4c:	ea00000c 	b	e84 <change_block_data+0x988>
    else if(blocks[block1] == 0 && blocks[block2] == 0 && blocks[block3] == 0 && blocks[block4] != 0){
        ;
    }

        // case 3: block1 empty, block2 empty, block3 occupied, block4 empty
    else if(blocks[block1] == 0 && blocks[block2] == 0 && blocks[block3] != 0 && blocks[block4] == 0){
     e50:	e301ceac 	movw	r12, #7852	; 0x1eac
     e54:	e340c009 	movt	r12, #9
     e58:	e08cc102 	add	r12, r12, r2, lsl #2
     e5c:	e59c400c 	ldr	r4, [r12, #12]
     e60:	e3540000 	cmp	r4, #0
     e64:	1afffdc5 	bne	580 <change_block_data+0x84>
        blocks[block1] = 0;
        change = true;
    }

        // case 4: block1 empty, block2 empty, block3 occupied, block4 occupied
    else if(blocks[block1] == 0 && blocks[block2] == 0 && blocks[block3] != 0 && blocks[block4] != 0){
     e68:	e301ceac 	movw	r12, #7852	; 0x1eac
     e6c:	e340c009 	movt	r12, #9
     e70:	e08cc102 	add	r12, r12, r2, lsl #2
     e74:	e59cc00c 	ldr	r12, [r12, #12]
     e78:	e35c0000 	cmp	r12, #0
     e7c:	1afffdd3 	bne	5d0 <change_block_data+0xd4>
     e80:	ea00003e 	b	f80 <change_block_data+0xa84>
        blocks[block1] = 0;
        change = true;
    }

        // case 6: block1 empty, block2 occupied, block3 empty, block4 occupied
    else if(blocks[block1] == 0 && blocks[block2] != 0 && blocks[block3] == 0 && blocks[block4] != 0){
     e84:	e3014eac 	movw	r4, #7852	; 0x1eac
     e88:	e3404009 	movt	r4, #9
     e8c:	e0844102 	add	r4, r4, r2, lsl #2
     e90:	e594400c 	ldr	r4, [r4, #12]
     e94:	e3540000 	cmp	r4, #0
     e98:	0afffdf7 	beq	67c <change_block_data+0x180>
            change = true;
        }
    }

        // case 7: block1 empty, block2 occupied, block3 occupied, block4 empty
    else if(blocks[block1] == 0 && blocks[block2] != 0 && blocks[block3] != 0 && blocks[block4] == 0){
     e9c:	e3014eac 	movw	r4, #7852	; 0x1eac
     ea0:	e3404009 	movt	r4, #9
     ea4:	e0844102 	add	r4, r4, r2, lsl #2
     ea8:	e594400c 	ldr	r4, [r4, #12]
     eac:	e3540000 	cmp	r4, #0
     eb0:	1afffe14 	bne	708 <change_block_data+0x20c>
            change = true;
        }
    }

        // case 8: block1 empty, block2 occupied, block3 occupied, block4 occupied
    else if(blocks[block1] == 0 && blocks[block2] != 0 && blocks[block3] != 0 && blocks[block4] != 0){
     eb4:	e3014eac 	movw	r4, #7852	; 0x1eac
     eb8:	e3404009 	movt	r4, #9
     ebc:	e0844102 	add	r4, r4, r2, lsl #2
     ec0:	e594400c 	ldr	r4, [r4, #12]
     ec4:	e3540000 	cmp	r4, #0
     ec8:	1afffe34 	bne	7a0 <change_block_data+0x2a4>
     ecc:	ea00002b 	b	f80 <change_block_data+0xa84>
            change = true;
        }
    }

        // case 13: block1 occupied, block2 occupied, block3 empty, block4 empty
    else if(blocks[block1] != 0 && blocks[block2] != 0 && blocks[block3] == 0 && blocks[block4] == 0){
     ed0:	e3015eac 	movw	r5, #7852	; 0x1eac
     ed4:	e3405009 	movt	r5, #9
     ed8:	e0855102 	add	r5, r5, r2, lsl #2
     edc:	e595500c 	ldr	r5, [r5, #12]
     ee0:	e3550000 	cmp	r5, #0
     ee4:	0afffeee 	beq	aa4 <change_block_data+0x5a8>
     ee8:	ea000012 	b	f38 <change_block_data+0xa3c>
        blocks[block1] = 0;
        change = true;
    }

        // case 10: block1 occupied, block2 empty, block3 empty, block4 occupied
    else if(blocks[block1] != 0 && blocks[block2] == 0 && blocks[block3] == 0 && blocks[block4] != 0){
     eec:	e3014eac 	movw	r4, #7852	; 0x1eac
     ef0:	e3404009 	movt	r4, #9
     ef4:	e0844102 	add	r4, r4, r2, lsl #2
     ef8:	e594400c 	ldr	r4, [r4, #12]
     efc:	e3540000 	cmp	r4, #0
     f00:	0afffe6d 	beq	8bc <change_block_data+0x3c0>
            change = true;
        }
    }

        // case 11: block1 occupied, block2 empty, block3 occupied, block4 empty
    else if(blocks[block1] != 0 && blocks[block2] == 0 && blocks[block3] != 0 && blocks[block4] == 0){
     f04:	e3014eac 	movw	r4, #7852	; 0x1eac
     f08:	e3404009 	movt	r4, #9
     f0c:	e0844102 	add	r4, r4, r2, lsl #2
     f10:	e594400c 	ldr	r4, [r4, #12]
     f14:	e3540000 	cmp	r4, #0
     f18:	1afffe8a 	bne	948 <change_block_data+0x44c>
            change = true;
        }
    }

        // case 12: block1 occupied, block2 empty, block3 occupied, block4 occupied
    else if(blocks[block1] != 0 && blocks[block2] == 0 && blocks[block3] != 0 && blocks[block4] != 0){
     f1c:	e3014eac 	movw	r4, #7852	; 0x1eac
     f20:	e3404009 	movt	r4, #9
     f24:	e0844102 	add	r4, r4, r2, lsl #2
     f28:	e594400c 	ldr	r4, [r4, #12]
     f2c:	e3540000 	cmp	r4, #0
     f30:	1afffeaa 	bne	9e0 <change_block_data+0x4e4>
     f34:	ea000011 	b	f80 <change_block_data+0xa84>
            change = true;
        }
    }

        // case 14: block1 occupied, block2 occupied, block3 empty, block4 occupied
    else if(blocks[block1] != 0 && blocks[block2] != 0 && blocks[block3] == 0 && blocks[block4] != 0){
     f38:	e3015eac 	movw	r5, #7852	; 0x1eac
     f3c:	e3405009 	movt	r5, #9
     f40:	e0855102 	add	r5, r5, r2, lsl #2
     f44:	e595500c 	ldr	r5, [r5, #12]
     f48:	e3550000 	cmp	r5, #0
     f4c:	0afffefa 	beq	b3c <change_block_data+0x640>
            change = true;
        }
    }

        // case 15: block1 occupied, block2 occupied, block3 occupied, block4 empty
    else if(blocks[block1] != 0 && blocks[block2] != 0 && blocks[block3] != 0 && blocks[block4] == 0){
     f50:	e3015eac 	movw	r5, #7852	; 0x1eac
     f54:	e3405009 	movt	r5, #9
     f58:	e0855102 	add	r5, r5, r2, lsl #2
     f5c:	e595500c 	ldr	r5, [r5, #12]
     f60:	e3550000 	cmp	r5, #0
     f64:	1affff28 	bne	c0c <change_block_data+0x710>
            change = true;
        }
    }

        // case 16: block1 occupied, block2 occupied, block3 occupied, block4 occupied
    else if(blocks[block1] != 0 && blocks[block2] != 0 && blocks[block3] != 0 && blocks[block4] != 0){
     f68:	e3015eac 	movw	r5, #7852	; 0x1eac
     f6c:	e3405009 	movt	r5, #9
     f70:	e0855102 	add	r5, r5, r2, lsl #2
     f74:	e595600c 	ldr	r6, [r5, #12]
     f78:	e3560000 	cmp	r6, #0
     f7c:	1affff5c 	bne	cf4 <change_block_data+0x7f8>
    }




}
     f80:	e8bd0070 	pop	{r4, r5, r6}
     f84:	e12fff1e 	bx	lr

00000f88 <gameboard_full>:

// return true if the game board if full
bool gameboard_full(){
    int i;
    for(i = 0; i < block_size; i++){
     f88:	e30c3dd8 	movw	r3, #52696	; 0xcdd8
     f8c:	e3403000 	movt	r3, #0
     f90:	e5930000 	ldr	r0, [r3]
     f94:	e3500000 	cmp	r0, #0
     f98:	da00000f 	ble	fdc <gameboard_full+0x54>
        if(blocks[i] == 0){
     f9c:	e3013eac 	movw	r3, #7852	; 0x1eac
     fa0:	e3403009 	movt	r3, #9
     fa4:	e593300c 	ldr	r3, [r3, #12]
     fa8:	e3530000 	cmp	r3, #0
     fac:	0a00000c 	beq	fe4 <gameboard_full+0x5c>
     fb0:	e59f203c 	ldr	r2, [pc, #60]	; ff4 <gameboard_full+0x6c>
}

// return true if the game board if full
bool gameboard_full(){
    int i;
    for(i = 0; i < block_size; i++){
     fb4:	e3a03000 	mov	r3, #0
     fb8:	ea000002 	b	fc8 <gameboard_full+0x40>
        if(blocks[i] == 0){
     fbc:	e5b21004 	ldr	r1, [r2, #4]!
     fc0:	e3510000 	cmp	r1, #0
     fc4:	0a000008 	beq	fec <gameboard_full+0x64>
}

// return true if the game board if full
bool gameboard_full(){
    int i;
    for(i = 0; i < block_size; i++){
     fc8:	e2833001 	add	r3, r3, #1
     fcc:	e1530000 	cmp	r3, r0
     fd0:	1afffff9 	bne	fbc <gameboard_full+0x34>
        if(blocks[i] == 0){
            return true;
        }
    }
    return false;
     fd4:	e3a00000 	mov	r0, #0
     fd8:	e12fff1e 	bx	lr
     fdc:	e3a00000 	mov	r0, #0
     fe0:	e12fff1e 	bx	lr
// return true if the game board if full
bool gameboard_full(){
    int i;
    for(i = 0; i < block_size; i++){
        if(blocks[i] == 0){
            return true;
     fe4:	e3a00001 	mov	r0, #1
     fe8:	e12fff1e 	bx	lr
     fec:	e3a00001 	mov	r0, #1
        }
    }
    return false;
}
     ff0:	e12fff1e 	bx	lr
     ff4:	00091eb8 	.word	0x00091eb8

00000ff8 <available_move>:

// return true if a move can be made
bool available_move(){
     ff8:	e52d4004 	push	{r4}		; (str r4, [sp, #-4]!)
    // case 1: check term 0
    if(blocks[0] == blocks[1] || blocks[0] == blocks[4] ){
     ffc:	e3013eac 	movw	r3, #7852	; 0x1eac
    1000:	e3403009 	movt	r3, #9
    1004:	e593100c 	ldr	r1, [r3, #12]
    1008:	e5932010 	ldr	r2, [r3, #16]
    100c:	e1510002 	cmp	r1, r2
        return true;
    1010:	03a00001 	moveq	r0, #1
}

// return true if a move can be made
bool available_move(){
    // case 1: check term 0
    if(blocks[0] == blocks[1] || blocks[0] == blocks[4] ){
    1014:	0a000072 	beq	11e4 <available_move+0x1ec>
    1018:	e3013eac 	movw	r3, #7852	; 0x1eac
    101c:	e3403009 	movt	r3, #9
    1020:	e593001c 	ldr	r0, [r3, #28]
    1024:	e1510000 	cmp	r1, r0
        return true;
    1028:	03a00001 	moveq	r0, #1
}

// return true if a move can be made
bool available_move(){
    // case 1: check term 0
    if(blocks[0] == blocks[1] || blocks[0] == blocks[4] ){
    102c:	0a00006c 	beq	11e4 <available_move+0x1ec>
        return true;
    }

    // case 2: check term 1
    if(blocks[1] == blocks[0] || blocks[1] == blocks[5] || blocks[1] == blocks[2] ){
    1030:	e3013eac 	movw	r3, #7852	; 0x1eac
    1034:	e3403009 	movt	r3, #9
    1038:	e5931020 	ldr	r1, [r3, #32]
    103c:	e1520001 	cmp	r2, r1
        return true;
    1040:	03a00001 	moveq	r0, #1
    if(blocks[0] == blocks[1] || blocks[0] == blocks[4] ){
        return true;
    }

    // case 2: check term 1
    if(blocks[1] == blocks[0] || blocks[1] == blocks[5] || blocks[1] == blocks[2] ){
    1044:	0a000066 	beq	11e4 <available_move+0x1ec>
    1048:	e3013eac 	movw	r3, #7852	; 0x1eac
    104c:	e3403009 	movt	r3, #9
    1050:	e5933014 	ldr	r3, [r3, #20]
        return true;
    }

    // case 3: check term 2
    if(blocks[2] == blocks[1] || blocks[2] == blocks[6] || blocks[2] == blocks[3] ){
    1054:	e1520003 	cmp	r2, r3
        return true;
    1058:	03a00001 	moveq	r0, #1
    if(blocks[1] == blocks[0] || blocks[1] == blocks[5] || blocks[1] == blocks[2] ){
        return true;
    }

    // case 3: check term 2
    if(blocks[2] == blocks[1] || blocks[2] == blocks[6] || blocks[2] == blocks[3] ){
    105c:	0a000060 	beq	11e4 <available_move+0x1ec>
    1060:	e3012eac 	movw	r2, #7852	; 0x1eac
    1064:	e3402009 	movt	r2, #9
    1068:	e592c024 	ldr	r12, [r2, #36]	; 0x24
    106c:	e153000c 	cmp	r3, r12
        return true;
    1070:	03a00001 	moveq	r0, #1
    if(blocks[1] == blocks[0] || blocks[1] == blocks[5] || blocks[1] == blocks[2] ){
        return true;
    }

    // case 3: check term 2
    if(blocks[2] == blocks[1] || blocks[2] == blocks[6] || blocks[2] == blocks[3] ){
    1074:	0a00005a 	beq	11e4 <available_move+0x1ec>
    1078:	e3012eac 	movw	r2, #7852	; 0x1eac
    107c:	e3402009 	movt	r2, #9
    1080:	e5922018 	ldr	r2, [r2, #24]
        return true;
    }

    // case 4: check term 3
    if(blocks[3] == blocks[2] || blocks[3] == blocks[7] || blocks[3] == blocks[6] ){
    1084:	e1530002 	cmp	r3, r2
        return true;
    1088:	03a00001 	moveq	r0, #1
    if(blocks[2] == blocks[1] || blocks[2] == blocks[6] || blocks[2] == blocks[3] ){
        return true;
    }

    // case 4: check term 3
    if(blocks[3] == blocks[2] || blocks[3] == blocks[7] || blocks[3] == blocks[6] ){
    108c:	0a000054 	beq	11e4 <available_move+0x1ec>
    1090:	e3013eac 	movw	r3, #7852	; 0x1eac
    1094:	e3403009 	movt	r3, #9
    1098:	e5933028 	ldr	r3, [r3, #40]	; 0x28
    109c:	e1520003 	cmp	r2, r3
        return true;
    10a0:	03a00001 	moveq	r0, #1
    if(blocks[2] == blocks[1] || blocks[2] == blocks[6] || blocks[2] == blocks[3] ){
        return true;
    }

    // case 4: check term 3
    if(blocks[3] == blocks[2] || blocks[3] == blocks[7] || blocks[3] == blocks[6] ){
    10a4:	0a00004e 	beq	11e4 <available_move+0x1ec>
    10a8:	e15c0002 	cmp	r12, r2
        return true;
    10ac:	03a00001 	moveq	r0, #1
    if(blocks[2] == blocks[1] || blocks[2] == blocks[6] || blocks[2] == blocks[3] ){
        return true;
    }

    // case 4: check term 3
    if(blocks[3] == blocks[2] || blocks[3] == blocks[7] || blocks[3] == blocks[6] ){
    10b0:	0a00004b 	beq	11e4 <available_move+0x1ec>
        return true;
    }

    // case 5: check term 4
    if(blocks[4] == blocks[0] || blocks[4] == blocks[5] || blocks[4] == blocks[8] ){
    10b4:	e1500001 	cmp	r0, r1
        return true;
    10b8:	03a00001 	moveq	r0, #1
    if(blocks[3] == blocks[2] || blocks[3] == blocks[7] || blocks[3] == blocks[6] ){
        return true;
    }

    // case 5: check term 4
    if(blocks[4] == blocks[0] || blocks[4] == blocks[5] || blocks[4] == blocks[8] ){
    10bc:	0a000048 	beq	11e4 <available_move+0x1ec>
    10c0:	e3012eac 	movw	r2, #7852	; 0x1eac
    10c4:	e3402009 	movt	r2, #9
    10c8:	e592202c 	ldr	r2, [r2, #44]	; 0x2c
    10cc:	e1500002 	cmp	r0, r2
        return true;
    10d0:	03a00001 	moveq	r0, #1
    if(blocks[3] == blocks[2] || blocks[3] == blocks[7] || blocks[3] == blocks[6] ){
        return true;
    }

    // case 5: check term 4
    if(blocks[4] == blocks[0] || blocks[4] == blocks[5] || blocks[4] == blocks[8] ){
    10d4:	0a000042 	beq	11e4 <available_move+0x1ec>
        return true;
    }

    // case 6: check term 5
    if(blocks[5] == blocks[1] || blocks[5] == blocks[4] || blocks[5] == blocks[9] || blocks[5] == blocks[6] ){
    10d8:	e3010eac 	movw	r0, #7852	; 0x1eac
    10dc:	e3400009 	movt	r0, #9
    10e0:	e5900030 	ldr	r0, [r0, #48]	; 0x30
    10e4:	e1510000 	cmp	r1, r0
        return true;
    10e8:	03a00001 	moveq	r0, #1
    if(blocks[4] == blocks[0] || blocks[4] == blocks[5] || blocks[4] == blocks[8] ){
        return true;
    }

    // case 6: check term 5
    if(blocks[5] == blocks[1] || blocks[5] == blocks[4] || blocks[5] == blocks[9] || blocks[5] == blocks[6] ){
    10ec:	0a00003c 	beq	11e4 <available_move+0x1ec>
    10f0:	e151000c 	cmp	r1, r12
        return true;
    10f4:	03a00001 	moveq	r0, #1
    if(blocks[4] == blocks[0] || blocks[4] == blocks[5] || blocks[4] == blocks[8] ){
        return true;
    }

    // case 6: check term 5
    if(blocks[5] == blocks[1] || blocks[5] == blocks[4] || blocks[5] == blocks[9] || blocks[5] == blocks[6] ){
    10f8:	0a000039 	beq	11e4 <available_move+0x1ec>
        return true;
    }

    // case 7: check term 6
    if(blocks[6] == blocks[2] || blocks[6] == blocks[5] || blocks[6] == blocks[10] || blocks[6] == blocks[7] ){
    10fc:	e3011eac 	movw	r1, #7852	; 0x1eac
    1100:	e3401009 	movt	r1, #9
    1104:	e5911034 	ldr	r1, [r1, #52]	; 0x34
    1108:	e15c0001 	cmp	r12, r1
        return true;
    110c:	03a00001 	moveq	r0, #1
    if(blocks[5] == blocks[1] || blocks[5] == blocks[4] || blocks[5] == blocks[9] || blocks[5] == blocks[6] ){
        return true;
    }

    // case 7: check term 6
    if(blocks[6] == blocks[2] || blocks[6] == blocks[5] || blocks[6] == blocks[10] || blocks[6] == blocks[7] ){
    1110:	0a000033 	beq	11e4 <available_move+0x1ec>
    1114:	e15c0003 	cmp	r12, r3
        return true;
    1118:	03a00001 	moveq	r0, #1
    if(blocks[5] == blocks[1] || blocks[5] == blocks[4] || blocks[5] == blocks[9] || blocks[5] == blocks[6] ){
        return true;
    }

    // case 7: check term 6
    if(blocks[6] == blocks[2] || blocks[6] == blocks[5] || blocks[6] == blocks[10] || blocks[6] == blocks[7] ){
    111c:	0a000030 	beq	11e4 <available_move+0x1ec>
        return true;
    }

    // case 8: check term 7
    if(blocks[7] == blocks[3] || blocks[7] == blocks[6] || blocks[7] == blocks[11] ){
    1120:	e301ceac 	movw	r12, #7852	; 0x1eac
    1124:	e340c009 	movt	r12, #9
    1128:	e59cc038 	ldr	r12, [r12, #56]	; 0x38
    112c:	e153000c 	cmp	r3, r12
        return true;
    1130:	03a00001 	moveq	r0, #1
    if(blocks[6] == blocks[2] || blocks[6] == blocks[5] || blocks[6] == blocks[10] || blocks[6] == blocks[7] ){
        return true;
    }

    // case 8: check term 7
    if(blocks[7] == blocks[3] || blocks[7] == blocks[6] || blocks[7] == blocks[11] ){
    1134:	0a00002a 	beq	11e4 <available_move+0x1ec>
        return true;
    }

    // case 9: check term 8
    if(blocks[8] == blocks[4] || blocks[8] == blocks[9] || blocks[8] == blocks[12] ){
    1138:	e1520000 	cmp	r2, r0
        return true;
    113c:	03a00001 	moveq	r0, #1
    if(blocks[7] == blocks[3] || blocks[7] == blocks[6] || blocks[7] == blocks[11] ){
        return true;
    }

    // case 9: check term 8
    if(blocks[8] == blocks[4] || blocks[8] == blocks[9] || blocks[8] == blocks[12] ){
    1140:	0a000027 	beq	11e4 <available_move+0x1ec>
    1144:	e3013eac 	movw	r3, #7852	; 0x1eac
    1148:	e3403009 	movt	r3, #9
    114c:	e593303c 	ldr	r3, [r3, #60]	; 0x3c
    1150:	e1520003 	cmp	r2, r3
        return true;
    1154:	03a00001 	moveq	r0, #1
    if(blocks[7] == blocks[3] || blocks[7] == blocks[6] || blocks[7] == blocks[11] ){
        return true;
    }

    // case 9: check term 8
    if(blocks[8] == blocks[4] || blocks[8] == blocks[9] || blocks[8] == blocks[12] ){
    1158:	0a000021 	beq	11e4 <available_move+0x1ec>
        return true;
    }

    // case 10: check term 9
    if(blocks[9] == blocks[5] || blocks[9] == blocks[8] || blocks[9] == blocks[13] || blocks[9] == blocks[10] ){
    115c:	e3012eac 	movw	r2, #7852	; 0x1eac
    1160:	e3402009 	movt	r2, #9
    1164:	e5924040 	ldr	r4, [r2, #64]	; 0x40
    1168:	e1500004 	cmp	r0, r4
        return true;
    116c:	03a00001 	moveq	r0, #1
    if(blocks[8] == blocks[4] || blocks[8] == blocks[9] || blocks[8] == blocks[12] ){
        return true;
    }

    // case 10: check term 9
    if(blocks[9] == blocks[5] || blocks[9] == blocks[8] || blocks[9] == blocks[13] || blocks[9] == blocks[10] ){
    1170:	0a00001b 	beq	11e4 <available_move+0x1ec>
    1174:	e1500001 	cmp	r0, r1
        return true;
    1178:	03a00001 	moveq	r0, #1
    if(blocks[8] == blocks[4] || blocks[8] == blocks[9] || blocks[8] == blocks[12] ){
        return true;
    }

    // case 10: check term 9
    if(blocks[9] == blocks[5] || blocks[9] == blocks[8] || blocks[9] == blocks[13] || blocks[9] == blocks[10] ){
    117c:	0a000018 	beq	11e4 <available_move+0x1ec>
        return true;
    }

    // case 11: check term 10
    if(blocks[10] == blocks[6] || blocks[10] == blocks[9] || blocks[10] == blocks[14] || blocks[10] == blocks[11] ){
    1180:	e3012eac 	movw	r2, #7852	; 0x1eac
    1184:	e3402009 	movt	r2, #9
    1188:	e5922044 	ldr	r2, [r2, #68]	; 0x44
    118c:	e1510002 	cmp	r1, r2
        return true;
    1190:	03a00001 	moveq	r0, #1
    if(blocks[9] == blocks[5] || blocks[9] == blocks[8] || blocks[9] == blocks[13] || blocks[9] == blocks[10] ){
        return true;
    }

    // case 11: check term 10
    if(blocks[10] == blocks[6] || blocks[10] == blocks[9] || blocks[10] == blocks[14] || blocks[10] == blocks[11] ){
    1194:	0a000012 	beq	11e4 <available_move+0x1ec>
    1198:	e151000c 	cmp	r1, r12
        return true;
    119c:	03a00001 	moveq	r0, #1
    if(blocks[9] == blocks[5] || blocks[9] == blocks[8] || blocks[9] == blocks[13] || blocks[9] == blocks[10] ){
        return true;
    }

    // case 11: check term 10
    if(blocks[10] == blocks[6] || blocks[10] == blocks[9] || blocks[10] == blocks[14] || blocks[10] == blocks[11] ){
    11a0:	0a00000f 	beq	11e4 <available_move+0x1ec>
        return true;
    }

    // case 12: check term 11
    if(blocks[11] == blocks[7] || blocks[11] == blocks[10] || blocks[11] == blocks[15] ){
    11a4:	e3011eac 	movw	r1, #7852	; 0x1eac
    11a8:	e3401009 	movt	r1, #9
    11ac:	e5910048 	ldr	r0, [r1, #72]	; 0x48
    11b0:	e15c0000 	cmp	r12, r0
        return true;
    11b4:	03a00001 	moveq	r0, #1
    if(blocks[10] == blocks[6] || blocks[10] == blocks[9] || blocks[10] == blocks[14] || blocks[10] == blocks[11] ){
        return true;
    }

    // case 12: check term 11
    if(blocks[11] == blocks[7] || blocks[11] == blocks[10] || blocks[11] == blocks[15] ){
    11b8:	0a000009 	beq	11e4 <available_move+0x1ec>
        return true;
    }

    // case 13: check term 12
    if(blocks[12] == blocks[8] || blocks[12] == blocks[13] ){
    11bc:	e1530004 	cmp	r3, r4
        return true;
    11c0:	03a00001 	moveq	r0, #1
    if(blocks[11] == blocks[7] || blocks[11] == blocks[10] || blocks[11] == blocks[15] ){
        return true;
    }

    // case 13: check term 12
    if(blocks[12] == blocks[8] || blocks[12] == blocks[13] ){
    11c4:	0a000006 	beq	11e4 <available_move+0x1ec>
        return true;
    }

    // case 14: check term 13
    if(blocks[13] == blocks[9] || blocks[13] == blocks[12] || blocks[13] == blocks[14] ){
    11c8:	e1540002 	cmp	r4, r2
        return true;
    11cc:	03a00001 	moveq	r0, #1
    if(blocks[12] == blocks[8] || blocks[12] == blocks[13] ){
        return true;
    }

    // case 14: check term 13
    if(blocks[13] == blocks[9] || blocks[13] == blocks[12] || blocks[13] == blocks[14] ){
    11d0:	0a000003 	beq	11e4 <available_move+0x1ec>
        return true;
    }

    // case 15: check term 14
    if(blocks[14] == blocks[10] || blocks[14] == blocks[13] || blocks[14] == blocks[15] ){
    11d4:	e1520000 	cmp	r2, r0
    11d8:	13a00000 	movne	r0, #0
    11dc:	03a00001 	moveq	r0, #1
    11e0:	eaffffff 	b	11e4 <available_move+0x1ec>
    if(blocks[15] == blocks[11] || blocks[15] == blocks[14] ){
        return true;
    }

    return false;
}
    11e4:	e8bd0010 	ldmfd	sp!, {r4}
    11e8:	e12fff1e 	bx	lr

000011ec <win_f>:

// return true if any block value reaches 2048
bool win_f(){
    int i;
    for(i = 0; i < block_size; i++){
    11ec:	e30c3dd8 	movw	r3, #52696	; 0xcdd8
    11f0:	e3403000 	movt	r3, #0
    11f4:	e5930000 	ldr	r0, [r3]
    11f8:	e3500000 	cmp	r0, #0
    11fc:	da00000f 	ble	1240 <win_f+0x54>
        if(blocks[i] == 2048 ){
    1200:	e3013eac 	movw	r3, #7852	; 0x1eac
    1204:	e3403009 	movt	r3, #9
    1208:	e593300c 	ldr	r3, [r3, #12]
    120c:	e3530b02 	cmp	r3, #2048	; 0x800
    1210:	0a00000c 	beq	1248 <win_f+0x5c>
    1214:	e59f203c 	ldr	r2, [pc, #60]	; 1258 <win_f+0x6c>
}

// return true if any block value reaches 2048
bool win_f(){
    int i;
    for(i = 0; i < block_size; i++){
    1218:	e3a03000 	mov	r3, #0
    121c:	ea000002 	b	122c <win_f+0x40>
        if(blocks[i] == 2048 ){
    1220:	e5b21004 	ldr	r1, [r2, #4]!
    1224:	e3510b02 	cmp	r1, #2048	; 0x800
    1228:	0a000008 	beq	1250 <win_f+0x64>
}

// return true if any block value reaches 2048
bool win_f(){
    int i;
    for(i = 0; i < block_size; i++){
    122c:	e2833001 	add	r3, r3, #1
    1230:	e1530000 	cmp	r3, r0
    1234:	1afffff9 	bne	1220 <win_f+0x34>
        if(blocks[i] == 2048 ){
            return true;
        }
    }
    return false;
    1238:	e3a00000 	mov	r0, #0
    123c:	e12fff1e 	bx	lr
    1240:	e3a00000 	mov	r0, #0
    1244:	e12fff1e 	bx	lr
// return true if any block value reaches 2048
bool win_f(){
    int i;
    for(i = 0; i < block_size; i++){
        if(blocks[i] == 2048 ){
            return true;
    1248:	e3a00001 	mov	r0, #1
    124c:	e12fff1e 	bx	lr
    1250:	e3a00001 	mov	r0, #1
        }
    }
    return false;
}
    1254:	e12fff1e 	bx	lr
    1258:	00091eb8 	.word	0x00091eb8

0000125c <plot_pixel>:

// fill the pixel with given color
void plot_pixel(int x, int y, short int line_color)
{
    *(short int *)(pixel_buffer_start + (y << 10) + (x << 1)) = line_color;
    125c:	e3013eac 	movw	r3, #7852	; 0x1eac
    1260:	e3403009 	movt	r3, #9
    1264:	e5933050 	ldr	r3, [r3, #80]	; 0x50
    1268:	e1a00080 	lsl	r0, r0, #1
    126c:	e0831501 	add	r1, r3, r1, lsl #10
    1270:	e18120b0 	strh	r2, [r1, r0]
    1274:	e12fff1e 	bx	lr

00001278 <clear_screen>:
}

// clear the screen
void clear_screen(){
    1278:	e92d4070 	push	{r4, r5, r6, lr}
    int x,y;
    for(x = 0; x < 320 ; x++){
    127c:	e3a05000 	mov	r5, #0
{
    *(short int *)(pixel_buffer_start + (y << 10) + (x << 1)) = line_color;
}

// clear the screen
void clear_screen(){
    1280:	e1a06005 	mov	r6, r5
    1284:	ea000009 	b	12b0 <clear_screen+0x38>
    int x,y;
    for(x = 0; x < 320 ; x++){
        for(y = 0; y < 240; y++){
            plot_pixel(x,y,0);
    1288:	e1a00005 	mov	r0, r5
    128c:	e1a01004 	mov	r1, r4
    1290:	e1a02006 	mov	r2, r6
    1294:	ebfffff0 	bl	125c <plot_pixel>

// clear the screen
void clear_screen(){
    int x,y;
    for(x = 0; x < 320 ; x++){
        for(y = 0; y < 240; y++){
    1298:	e2844001 	add	r4, r4, #1
    129c:	e35400f0 	cmp	r4, #240	; 0xf0
    12a0:	1afffff8 	bne	1288 <clear_screen+0x10>
}

// clear the screen
void clear_screen(){
    int x,y;
    for(x = 0; x < 320 ; x++){
    12a4:	e2855001 	add	r5, r5, #1
    12a8:	e3550d05 	cmp	r5, #320	; 0x140
    12ac:	0a000001 	beq	12b8 <clear_screen+0x40>
{
    *(short int *)(pixel_buffer_start + (y << 10) + (x << 1)) = line_color;
}

// clear the screen
void clear_screen(){
    12b0:	e1a04006 	mov	r4, r6
    12b4:	eafffff3 	b	1288 <clear_screen+0x10>
    12b8:	e3013eac 	movw	r3, #7852	; 0x1eac
    12bc:	e3403009 	movt	r3, #9
    12c0:	e2832008 	add	r2, r3, #8
    12c4:	e2833048 	add	r3, r3, #72	; 0x48
            plot_pixel(x,y,0);
        }
    }
    int z;
    for(z=0; z < 16; z++){
        blocks[z] = 0;
    12c8:	e3a01000 	mov	r1, #0
    12cc:	e5a21004 	str	r1, [r2, #4]!
        for(y = 0; y < 240; y++){
            plot_pixel(x,y,0);
        }
    }
    int z;
    for(z=0; z < 16; z++){
    12d0:	e1520003 	cmp	r2, r3
    12d4:	1afffffc 	bne	12cc <clear_screen+0x54>
        blocks[z] = 0;
    }
}
    12d8:	e8bd8070 	pop	{r4, r5, r6, pc}

000012dc <print_all_block>:


// for debug only
void print_all_block(){
    12dc:	e92d40f8 	push	{r3, r4, r5, r6, r7, lr}
    int i;
    for (i = 0; i < block_size; i++){
    12e0:	e30c3dd8 	movw	r3, #52696	; 0xcdd8
    12e4:	e3403000 	movt	r3, #0
    12e8:	e5933000 	ldr	r3, [r3]
    12ec:	e3530000 	cmp	r3, #0
    12f0:	d8bd80f8 	pople	{r3, r4, r5, r6, r7, pc}
    12f4:	e59f5030 	ldr	r5, [pc, #48]	; 132c <print_all_block+0x50>
    12f8:	e3a04000 	mov	r4, #0
        printf("%d \n", blocks[i]);
    12fc:	e30c7ba0 	movw	r7, #52128	; 0xcba0
    1300:	e3407000 	movt	r7, #0


// for debug only
void print_all_block(){
    int i;
    for (i = 0; i < block_size; i++){
    1304:	e30c6dd8 	movw	r6, #52696	; 0xcdd8
    1308:	e3406000 	movt	r6, #0
        printf("%d \n", blocks[i]);
    130c:	e1a00007 	mov	r0, r7
    1310:	e5b51004 	ldr	r1, [r5, #4]!
    1314:	eb00031b 	bl	1f88 <printf>


// for debug only
void print_all_block(){
    int i;
    for (i = 0; i < block_size; i++){
    1318:	e2844001 	add	r4, r4, #1
    131c:	e5963000 	ldr	r3, [r6]
    1320:	e1530004 	cmp	r3, r4
    1324:	cafffff8 	bgt	130c <print_all_block+0x30>
    1328:	e8bd80f8 	pop	{r3, r4, r5, r6, r7, pc}
    132c:	00091eb4 	.word	0x00091eb4

00001330 <wait_for_vsync>:

void wait_for_vsync(){
    volatile int * pixel_ctrl_ptr = (int *)0xFF203020; // pixel controller
    register int status;

    *pixel_ctrl_ptr =1;
    1330:	e3033fff 	movw	r3, #16383	; 0x3fff
    1334:	e34f3f20 	movt	r3, #65312	; 0xff20
    1338:	e3a02001 	mov	r2, #1
    133c:	e5032fdf 	str	r2, [r3, #-4063]	; 0xfffff021
    status = *(pixel_ctrl_ptr+3);
    1340:	e5133fd3 	ldr	r3, [r3, #-4051]	; 0xfffff02d
    while ((status & 0x01)!= 0){
    1344:	e3130001 	tst	r3, #1
    1348:	012fff1e 	bxeq	lr
        status = *(pixel_ctrl_ptr+3);
    134c:	e3032fff 	movw	r2, #16383	; 0x3fff
    1350:	e34f2f20 	movt	r2, #65312	; 0xff20
    1354:	e5123fd3 	ldr	r3, [r2, #-4051]	; 0xfffff02d
    volatile int * pixel_ctrl_ptr = (int *)0xFF203020; // pixel controller
    register int status;

    *pixel_ctrl_ptr =1;
    status = *(pixel_ctrl_ptr+3);
    while ((status & 0x01)!= 0){
    1358:	e3130001 	tst	r3, #1
    135c:	1afffffc 	bne	1354 <wait_for_vsync+0x24>
    1360:	e12fff1e 	bx	lr

00001364 <plot_image>:
    return  true;
}


// plot single image
void plot_image(int initialX, int initialY, int imageArray[], unsigned width, unsigned height) {
    1364:	e92d4ff0 	push	{r4, r5, r6, r7, r8, r9, r10, r11, lr}
    1368:	e24dd02c 	sub	sp, sp, #44	; 0x2c
    136c:	e1a09000 	mov	r9, r0
    1370:	e1a0b001 	mov	r11, r1
    1374:	e58d2020 	str	r2, [sp, #32]
    1378:	e58d300c 	str	r3, [sp, #12]

    int i = 0; // index for pixel colours in the image array

    int y;
    for (y = 0; y < height; y++) {
    137c:	e59d0050 	ldr	r0, [sp, #80]	; 0x50
    1380:	e3500000 	cmp	r0, #0
    1384:	0a000039 	beq	1470 <plot_image+0x10c>
    1388:	e1a07001 	mov	r7, r1
    return  true;
}


// plot single image
void plot_image(int initialX, int initialY, int imageArray[], unsigned width, unsigned height) {
    138c:	e58d001c 	str	r0, [sp, #28]

    int i = 0; // index for pixel colours in the image array

    int y;
    for (y = 0; y < height; y++) {
    1390:	e3a01000 	mov	r1, #0
    1394:	e58d1010 	str	r1, [sp, #16]
    1398:	e58d1014 	str	r1, [sp, #20]


// plot single image
void plot_image(int initialX, int initialY, int imageArray[], unsigned width, unsigned height) {

    int i = 0; // index for pixel colours in the image array
    139c:	e58d1018 	str	r1, [sp, #24]
            int plotX = initialX + x;
            int plotY = initialY + y;

            // check for magenta, which is selected as a substitute of the alpha(transparent) colour
            // when the pixel is out of bound, ignore it
            if (imageArray[i] != 0b1111100000011111 && plotX >= initialX && plotY >= initialY && x < width && y < height)
    13a0:	e30fa81f 	movw	r10, #63519	; 0xf81f
    return  true;
}


// plot single image
void plot_image(int initialX, int initialY, int imageArray[], unsigned width, unsigned height) {
    13a4:	e2432001 	sub	r2, r3, #1
    13a8:	e58d2024 	str	r2, [sp, #36]	; 0x24
    13ac:	ea000023 	b	1440 <plot_image+0xdc>
            int plotX = initialX + x;
            int plotY = initialY + y;

            // check for magenta, which is selected as a substitute of the alpha(transparent) colour
            // when the pixel is out of bound, ignore it
            if (imageArray[i] != 0b1111100000011111 && plotX >= initialX && plotY >= initialY && x < width && y < height)
    13b0:	e5b62004 	ldr	r2, [r6, #4]!
    13b4:	e152000a 	cmp	r2, r10
    13b8:	0a00000e 	beq	13f8 <plot_image+0x94>

    int y;
    for (y = 0; y < height; y++) {
        int x;
        for (x = 0; x < width; x++) {
            int plotX = initialX + x;
    13bc:	e58d5008 	str	r5, [sp, #8]
            int plotY = initialY + y;
    13c0:	e58d7004 	str	r7, [sp, #4]

            // check for magenta, which is selected as a substitute of the alpha(transparent) colour
            // when the pixel is out of bound, ignore it
            if (imageArray[i] != 0b1111100000011111 && plotX >= initialX && plotY >= initialY && x < width && y < height)
    13c4:	e1590005 	cmp	r9, r5
    13c8:	d15b0007 	cmple	r11, r7
    13cc:	ca000009 	bgt	13f8 <plot_image+0x94>
    13d0:	e59dc010 	ldr	r12, [sp, #16]
    13d4:	e59d0050 	ldr	r0, [sp, #80]	; 0x50
    13d8:	e59d100c 	ldr	r1, [sp, #12]
    13dc:	e15c0000 	cmp	r12, r0
    13e0:	31530001 	cmpcc	r3, r1
    13e4:	2a000003 	bcs	13f8 <plot_image+0x94>
                plot_pixel(plotX, plotY, imageArray[i]);
    13e8:	e1a00005 	mov	r0, r5
    13ec:	e1a01007 	mov	r1, r7
    13f0:	e6bf2072 	sxth	r2, r2
    13f4:	ebffff98 	bl	125c <plot_pixel>
    int i = 0; // index for pixel colours in the image array

    int y;
    for (y = 0; y < height; y++) {
        int x;
        for (x = 0; x < width; x++) {
    13f8:	e2844001 	add	r4, r4, #1
    13fc:	e1a03004 	mov	r3, r4
    1400:	e2855001 	add	r5, r5, #1
    1404:	e1540008 	cmp	r4, r8
    1408:	1affffe8 	bne	13b0 <plot_image+0x4c>
    return  true;
}


// plot single image
void plot_image(int initialX, int initialY, int imageArray[], unsigned width, unsigned height) {
    140c:	e59d2018 	ldr	r2, [sp, #24]
    1410:	e2823001 	add	r3, r2, #1
    1414:	e59dc024 	ldr	r12, [sp, #36]	; 0x24
    1418:	e083300c 	add	r3, r3, r12
    141c:	e58d3018 	str	r3, [sp, #24]

    int i = 0; // index for pixel colours in the image array

    int y;
    for (y = 0; y < height; y++) {
    1420:	e59d0014 	ldr	r0, [sp, #20]
    1424:	e2800001 	add	r0, r0, #1
    1428:	e58d0014 	str	r0, [sp, #20]
    142c:	e58d0010 	str	r0, [sp, #16]
    1430:	e2877001 	add	r7, r7, #1
    1434:	e59d101c 	ldr	r1, [sp, #28]
    1438:	e1500001 	cmp	r0, r1
    143c:	0a00000b 	beq	1470 <plot_image+0x10c>
        int x;
        for (x = 0; x < width; x++) {
    1440:	e59d200c 	ldr	r2, [sp, #12]
    1444:	e3520000 	cmp	r2, #0
    1448:	0afffff4 	beq	1420 <plot_image+0xbc>
    return  true;
}


// plot single image
void plot_image(int initialX, int initialY, int imageArray[], unsigned width, unsigned height) {
    144c:	e59d3018 	ldr	r3, [sp, #24]
    1450:	e2436001 	sub	r6, r3, #1
    1454:	e59dc020 	ldr	r12, [sp, #32]
    1458:	e08c6106 	add	r6, r12, r6, lsl #2
    145c:	e1a05009 	mov	r5, r9
    1460:	e1a08002 	mov	r8, r2
    int i = 0; // index for pixel colours in the image array

    int y;
    for (y = 0; y < height; y++) {
        int x;
        for (x = 0; x < width; x++) {
    1464:	e3a03000 	mov	r3, #0
    return  true;
}


// plot single image
void plot_image(int initialX, int initialY, int imageArray[], unsigned width, unsigned height) {
    1468:	e1a04003 	mov	r4, r3
    146c:	eaffffcf 	b	13b0 <plot_image+0x4c>
                plot_pixel(plotX, plotY, imageArray[i]);

            i++; // switch to the next pixel colour
        }
    }
}
    1470:	e28dd02c 	add	sp, sp, #44	; 0x2c
    1474:	e8bd8ff0 	pop	{r4, r5, r6, r7, r8, r9, r10, r11, pc}

00001478 <draw_block>:

// draw any block on screen
void draw_block(int blockNum, int blockValue){
    1478:	e52de004 	push	{lr}		; (str lr, [sp, #-4]!)
    147c:	e24dd00c 	sub	sp, sp, #12
    1480:	e1a03001 	mov	r3, r1
    int x = 0;
    int y = 0;
    if (blockNum == 0 || blockNum == 4 || blockNum == 8 || blockNum == 12){
    1484:	e3d02004 	bics	r2, r0, #4
    1488:	0a000001 	beq	1494 <draw_block+0x1c>
    148c:	e3520008 	cmp	r2, #8
    1490:	1a00000a 	bne	14c0 <draw_block+0x48>
        x = 44;
        if (blockNum == 0)
    1494:	e3500000 	cmp	r0, #0
            y = 4;
    1498:	03a01004 	moveq	r1, #4
// draw any block on screen
void draw_block(int blockNum, int blockValue){
    int x = 0;
    int y = 0;
    if (blockNum == 0 || blockNum == 4 || blockNum == 8 || blockNum == 12){
        x = 44;
    149c:	03a0002c 	moveq	r0, #44	; 0x2c
        if (blockNum == 0)
    14a0:	0a00003d 	beq	159c <draw_block+0x124>
            y = 4;
        else if (blockNum == 4)
    14a4:	e3500004 	cmp	r0, #4
    14a8:	0a000027 	beq	154c <draw_block+0xd4>
            y = 63;
        else if (blockNum == 8)
            y = 122;
    14ac:	e3500008 	cmp	r0, #8
    14b0:	13a010b5 	movne	r1, #181	; 0xb5
    14b4:	03a0107a 	moveq	r1, #122	; 0x7a
    14b8:	e3a0002c 	mov	r0, #44	; 0x2c
    14bc:	ea000036 	b	159c <draw_block+0x124>
        else
            y = 181;
    }
    else if (blockNum == 1 || blockNum == 5 || blockNum == 9 || blockNum == 13){
    14c0:	e3520001 	cmp	r2, #1
    14c4:	0a000001 	beq	14d0 <draw_block+0x58>
    14c8:	e3520009 	cmp	r2, #9
    14cc:	1a000008 	bne	14f4 <draw_block+0x7c>
        x = 103;
        if (blockNum == 1)
    14d0:	e3500001 	cmp	r0, #1
    14d4:	0a00001f 	beq	1558 <draw_block+0xe0>
            y = 4;
        else if (blockNum == 5)
    14d8:	e3500005 	cmp	r0, #5
    14dc:	0a000020 	beq	1564 <draw_block+0xec>
            y = 63;
        else if (blockNum == 9)
            y = 122;
    14e0:	e3500009 	cmp	r0, #9
    14e4:	13a010b5 	movne	r1, #181	; 0xb5
    14e8:	03a0107a 	moveq	r1, #122	; 0x7a
    14ec:	e3a00067 	mov	r0, #103	; 0x67
    14f0:	ea000029 	b	159c <draw_block+0x124>
        else
            y = 181;
    }
    else if (blockNum == 2 || blockNum == 6 || blockNum == 10 || blockNum == 14){
    14f4:	e3520002 	cmp	r2, #2
    14f8:	0a000001 	beq	1504 <draw_block+0x8c>
    14fc:	e352000a 	cmp	r2, #10
    1500:	1a000008 	bne	1528 <draw_block+0xb0>
        x = 162;
        if (blockNum == 2)
    1504:	e3500002 	cmp	r0, #2
    1508:	0a000018 	beq	1570 <draw_block+0xf8>
            y = 4;
        else if (blockNum == 6)
    150c:	e3500006 	cmp	r0, #6
    1510:	0a000019 	beq	157c <draw_block+0x104>
            y = 63;
        else if (blockNum == 10)
            y = 122;
    1514:	e350000a 	cmp	r0, #10
    1518:	13a010b5 	movne	r1, #181	; 0xb5
    151c:	03a0107a 	moveq	r1, #122	; 0x7a
    1520:	e3a000a2 	mov	r0, #162	; 0xa2
    1524:	ea00001c 	b	159c <draw_block+0x124>
        else
            y = 181;
    }
    else {
        x = 221;
        if (blockNum == 3)
    1528:	e3500003 	cmp	r0, #3
    152c:	0a000015 	beq	1588 <draw_block+0x110>
            y = 4;
        else if (blockNum == 7)
    1530:	e3500007 	cmp	r0, #7
    1534:	0a000016 	beq	1594 <draw_block+0x11c>
            y = 63;
        else if (blockNum == 11)
            y = 122;
    1538:	e350000b 	cmp	r0, #11
    153c:	13a010b5 	movne	r1, #181	; 0xb5
    1540:	03a0107a 	moveq	r1, #122	; 0x7a
    1544:	e3a000dd 	mov	r0, #221	; 0xdd
    1548:	ea000013 	b	159c <draw_block+0x124>
    if (blockNum == 0 || blockNum == 4 || blockNum == 8 || blockNum == 12){
        x = 44;
        if (blockNum == 0)
            y = 4;
        else if (blockNum == 4)
            y = 63;
    154c:	e3a0103f 	mov	r1, #63	; 0x3f
// draw any block on screen
void draw_block(int blockNum, int blockValue){
    int x = 0;
    int y = 0;
    if (blockNum == 0 || blockNum == 4 || blockNum == 8 || blockNum == 12){
        x = 44;
    1550:	e3a0002c 	mov	r0, #44	; 0x2c
    1554:	ea000010 	b	159c <draw_block+0x124>
            y = 181;
    }
    else if (blockNum == 1 || blockNum == 5 || blockNum == 9 || blockNum == 13){
        x = 103;
        if (blockNum == 1)
            y = 4;
    1558:	e3a01004 	mov	r1, #4
            y = 122;
        else
            y = 181;
    }
    else if (blockNum == 1 || blockNum == 5 || blockNum == 9 || blockNum == 13){
        x = 103;
    155c:	e3a00067 	mov	r0, #103	; 0x67
    1560:	ea00000d 	b	159c <draw_block+0x124>
        if (blockNum == 1)
            y = 4;
        else if (blockNum == 5)
            y = 63;
    1564:	e3a0103f 	mov	r1, #63	; 0x3f
            y = 122;
        else
            y = 181;
    }
    else if (blockNum == 1 || blockNum == 5 || blockNum == 9 || blockNum == 13){
        x = 103;
    1568:	e3a00067 	mov	r0, #103	; 0x67
    156c:	ea00000a 	b	159c <draw_block+0x124>
            y = 181;
    }
    else if (blockNum == 2 || blockNum == 6 || blockNum == 10 || blockNum == 14){
        x = 162;
        if (blockNum == 2)
            y = 4;
    1570:	e3a01004 	mov	r1, #4
            y = 122;
        else
            y = 181;
    }
    else if (blockNum == 2 || blockNum == 6 || blockNum == 10 || blockNum == 14){
        x = 162;
    1574:	e3a000a2 	mov	r0, #162	; 0xa2
    1578:	ea000007 	b	159c <draw_block+0x124>
        if (blockNum == 2)
            y = 4;
        else if (blockNum == 6)
            y = 63;
    157c:	e3a0103f 	mov	r1, #63	; 0x3f
            y = 122;
        else
            y = 181;
    }
    else if (blockNum == 2 || blockNum == 6 || blockNum == 10 || blockNum == 14){
        x = 162;
    1580:	e3a000a2 	mov	r0, #162	; 0xa2
    1584:	ea000004 	b	159c <draw_block+0x124>
            y = 181;
    }
    else {
        x = 221;
        if (blockNum == 3)
            y = 4;
    1588:	e3a01004 	mov	r1, #4
            y = 122;
        else
            y = 181;
    }
    else {
        x = 221;
    158c:	e3a000dd 	mov	r0, #221	; 0xdd
    1590:	ea000001 	b	159c <draw_block+0x124>
        if (blockNum == 3)
            y = 4;
        else if (blockNum == 7)
            y = 63;
    1594:	e3a0103f 	mov	r1, #63	; 0x3f
            y = 122;
        else
            y = 181;
    }
    else {
        x = 221;
    1598:	e3a000dd 	mov	r0, #221	; 0xdd
            y = 122;
        else
            y = 181;
    }

    if (blockValue == 2)
    159c:	e3530002 	cmp	r3, #2
    15a0:	1a000004 	bne	15b8 <draw_block+0x140>
        plot_image(x, y, image_2_55x55, 55, 55);
    15a4:	e3a03037 	mov	r3, #55	; 0x37
    15a8:	e58d3000 	str	r3, [sp]
    15ac:	e59f2104 	ldr	r2, [pc, #260]	; 16b8 <draw_block+0x240>
    15b0:	ebffff6b 	bl	1364 <plot_image>
    15b4:	ea00003d 	b	16b0 <draw_block+0x238>
    else if (blockValue == 4)
    15b8:	e3530004 	cmp	r3, #4
    15bc:	1a000004 	bne	15d4 <draw_block+0x15c>
        plot_image(x, y, image_4_55x55, 55, 55);
    15c0:	e3a03037 	mov	r3, #55	; 0x37
    15c4:	e58d3000 	str	r3, [sp]
    15c8:	e59f20ec 	ldr	r2, [pc, #236]	; 16bc <draw_block+0x244>
    15cc:	ebffff64 	bl	1364 <plot_image>
    15d0:	ea000036 	b	16b0 <draw_block+0x238>
    else if (blockValue == 8)
    15d4:	e3530008 	cmp	r3, #8
    15d8:	1a000004 	bne	15f0 <draw_block+0x178>
        plot_image(x, y, image_8_55x55, 55, 55);
    15dc:	e3a03037 	mov	r3, #55	; 0x37
    15e0:	e58d3000 	str	r3, [sp]
    15e4:	e59f20d4 	ldr	r2, [pc, #212]	; 16c0 <draw_block+0x248>
    15e8:	ebffff5d 	bl	1364 <plot_image>
    15ec:	ea00002f 	b	16b0 <draw_block+0x238>
    else if (blockValue == 16)
    15f0:	e3530010 	cmp	r3, #16
    15f4:	1a000004 	bne	160c <draw_block+0x194>
        plot_image(x, y, image_16_55x55, 55, 55);
    15f8:	e3a03037 	mov	r3, #55	; 0x37
    15fc:	e58d3000 	str	r3, [sp]
    1600:	e59f20bc 	ldr	r2, [pc, #188]	; 16c4 <draw_block+0x24c>
    1604:	ebffff56 	bl	1364 <plot_image>
    1608:	ea000028 	b	16b0 <draw_block+0x238>
    else if (blockValue == 32)
    160c:	e3530020 	cmp	r3, #32
    1610:	1a000004 	bne	1628 <draw_block+0x1b0>
        plot_image(x, y, image_32_55x55, 55, 55);
    1614:	e3a03037 	mov	r3, #55	; 0x37
    1618:	e58d3000 	str	r3, [sp]
    161c:	e59f20a4 	ldr	r2, [pc, #164]	; 16c8 <draw_block+0x250>
    1620:	ebffff4f 	bl	1364 <plot_image>
    1624:	ea000021 	b	16b0 <draw_block+0x238>
    else if (blockValue == 64)
    1628:	e3530040 	cmp	r3, #64	; 0x40
    162c:	1a000004 	bne	1644 <draw_block+0x1cc>
        plot_image(x, y, image_64_55x55, 55, 55);
    1630:	e3a03037 	mov	r3, #55	; 0x37
    1634:	e58d3000 	str	r3, [sp]
    1638:	e59f208c 	ldr	r2, [pc, #140]	; 16cc <draw_block+0x254>
    163c:	ebffff48 	bl	1364 <plot_image>
    1640:	ea00001a 	b	16b0 <draw_block+0x238>
    else if (blockValue == 128)
    1644:	e3530080 	cmp	r3, #128	; 0x80
    1648:	1a000004 	bne	1660 <draw_block+0x1e8>
        plot_image(x, y, image_128_55x55, 55, 55);
    164c:	e3a03037 	mov	r3, #55	; 0x37
    1650:	e58d3000 	str	r3, [sp]
    1654:	e59f2074 	ldr	r2, [pc, #116]	; 16d0 <draw_block+0x258>
    1658:	ebffff41 	bl	1364 <plot_image>
    165c:	ea000013 	b	16b0 <draw_block+0x238>
    else if (blockValue == 256)
    1660:	e3530c01 	cmp	r3, #256	; 0x100
    1664:	1a000004 	bne	167c <draw_block+0x204>
        plot_image(x, y, image_256_55x55, 55, 55);
    1668:	e3a03037 	mov	r3, #55	; 0x37
    166c:	e58d3000 	str	r3, [sp]
    1670:	e59f205c 	ldr	r2, [pc, #92]	; 16d4 <draw_block+0x25c>
    1674:	ebffff3a 	bl	1364 <plot_image>
    1678:	ea00000c 	b	16b0 <draw_block+0x238>
    else if (blockValue == 512)
    167c:	e3530c02 	cmp	r3, #512	; 0x200
    1680:	1a000004 	bne	1698 <draw_block+0x220>
        plot_image(x, y, image_512_55x55, 55, 55);
    1684:	e3a03037 	mov	r3, #55	; 0x37
    1688:	e58d3000 	str	r3, [sp]
    168c:	e59f2044 	ldr	r2, [pc, #68]	; 16d8 <draw_block+0x260>
    1690:	ebffff33 	bl	1364 <plot_image>
    1694:	ea000005 	b	16b0 <draw_block+0x238>
    else if (blockValue == 1024)
    1698:	e3530b01 	cmp	r3, #1024	; 0x400
        plot_image(x, y, image_1024_55x55, 55, 55);
    169c:	e3a03037 	mov	r3, #55	; 0x37
    16a0:	e58d3000 	str	r3, [sp]
    16a4:	059f2030 	ldreq	r2, [pc, #48]	; 16dc <draw_block+0x264>
    else
        plot_image(x, y, image_2048_55x55, 55, 55);
    16a8:	159f2030 	ldrne	r2, [pc, #48]	; 16e0 <draw_block+0x268>
    16ac:	ebffff2c 	bl	1364 <plot_image>
}
    16b0:	e28dd00c 	add	sp, sp, #12
    16b4:	e8bd8000 	ldmfd	sp!, {pc}
    16b8:	0000cddc 	.word	0x0000cddc
    16bc:	0000fd20 	.word	0x0000fd20
    16c0:	00012c64 	.word	0x00012c64
    16c4:	00015ba8 	.word	0x00015ba8
    16c8:	00018aec 	.word	0x00018aec
    16cc:	0001ba30 	.word	0x0001ba30
    16d0:	0001e974 	.word	0x0001e974
    16d4:	000218b8 	.word	0x000218b8
    16d8:	000247fc 	.word	0x000247fc
    16dc:	00027740 	.word	0x00027740
    16e0:	0002a684 	.word	0x0002a684

000016e4 <draw_all>:

// draw all blocks
void draw_all(){
    16e4:	e92d41f0 	push	{r4, r5, r6, r7, r8, lr}
    //clear_screen();
    int x;
    // drae main canvas
    for(x = 44; x < 276 ; x++){
    16e8:	e3a0502c 	mov	r5, #44	; 0x2c
    else
        plot_image(x, y, image_2048_55x55, 55, 55);
}

// draw all blocks
void draw_all(){
    16ec:	e3a07004 	mov	r7, #4
    int x;
    // drae main canvas
    for(x = 44; x < 276 ; x++){
        int y;
        for(y = 4; y < 236; y++){
            plot_pixel(x,y,0xD637);
    16f0:	e30d6637 	movw	r6, #54839	; 0xd637
    16f4:	e34f6fff 	movt	r6, #65535	; 0xffff
    16f8:	ea000009 	b	1724 <draw_all+0x40>
    16fc:	e1a00005 	mov	r0, r5
    1700:	e1a01004 	mov	r1, r4
    1704:	e1a02006 	mov	r2, r6
    1708:	ebfffed3 	bl	125c <plot_pixel>
    //clear_screen();
    int x;
    // drae main canvas
    for(x = 44; x < 276 ; x++){
        int y;
        for(y = 4; y < 236; y++){
    170c:	e2844001 	add	r4, r4, #1
    1710:	e35400ec 	cmp	r4, #236	; 0xec
    1714:	1afffff8 	bne	16fc <draw_all+0x18>
// draw all blocks
void draw_all(){
    //clear_screen();
    int x;
    // drae main canvas
    for(x = 44; x < 276 ; x++){
    1718:	e2855001 	add	r5, r5, #1
    171c:	e3550f45 	cmp	r5, #276	; 0x114
    1720:	0a00000c 	beq	1758 <draw_all+0x74>
    else
        plot_image(x, y, image_2048_55x55, 55, 55);
}

// draw all blocks
void draw_all(){
    1724:	e1a04007 	mov	r4, r7
    1728:	eafffff3 	b	16fc <draw_all+0x18>
    }
    // draw lines
    for(x = 40; x < 280 ; x++){
        int y;
        for(y = 0; y < 4; y++){
            plot_pixel(x,y,0xAD13);
    172c:	e1a00006 	mov	r0, r6
    1730:	e1a01004 	mov	r1, r4
    1734:	e1a02007 	mov	r2, r7
    1738:	ebfffec7 	bl	125c <plot_pixel>
        }
    }
    // draw lines
    for(x = 40; x < 280 ; x++){
        int y;
        for(y = 0; y < 4; y++){
    173c:	e2844001 	add	r4, r4, #1
    1740:	e3540004 	cmp	r4, #4
    1744:	1afffff8 	bne	172c <draw_all+0x48>
        for(y = 4; y < 236; y++){
            plot_pixel(x,y,0xD637);
        }
    }
    // draw lines
    for(x = 40; x < 280 ; x++){
    1748:	e2866001 	add	r6, r6, #1
    174c:	e3560f46 	cmp	r6, #280	; 0x118
    1750:	1a000004 	bne	1768 <draw_all+0x84>
    1754:	ea000010 	b	179c <draw_all+0xb8>
// draw all blocks
void draw_all(){
    //clear_screen();
    int x;
    // drae main canvas
    for(x = 44; x < 276 ; x++){
    1758:	e3a06028 	mov	r6, #40	; 0x28
    175c:	e3a08000 	mov	r8, #0
    }
    // draw lines
    for(x = 40; x < 280 ; x++){
        int y;
        for(y = 0; y < 4; y++){
            plot_pixel(x,y,0xAD13);
    1760:	e30a7d13 	movw	r7, #44307	; 0xad13
    1764:	e34f7fff 	movt	r7, #65535	; 0xffff
// draw all blocks
void draw_all(){
    //clear_screen();
    int x;
    // drae main canvas
    for(x = 44; x < 276 ; x++){
    1768:	e1a04008 	mov	r4, r8
    176c:	eaffffee 	b	172c <draw_all+0x48>
        }
    }
    for(x = 40; x < 280 ; x++){
        int y;
        for(y = 59; y < 63; y++){
            plot_pixel(x,y,0xAD13);
    1770:	e1a00006 	mov	r0, r6
    1774:	e1a01004 	mov	r1, r4
    1778:	e1a02007 	mov	r2, r7
    177c:	ebfffeb6 	bl	125c <plot_pixel>
            plot_pixel(x,y,0xAD13);
        }
    }
    for(x = 40; x < 280 ; x++){
        int y;
        for(y = 59; y < 63; y++){
    1780:	e2844001 	add	r4, r4, #1
    1784:	e354003f 	cmp	r4, #63	; 0x3f
    1788:	1afffff8 	bne	1770 <draw_all+0x8c>
        int y;
        for(y = 0; y < 4; y++){
            plot_pixel(x,y,0xAD13);
        }
    }
    for(x = 40; x < 280 ; x++){
    178c:	e2866001 	add	r6, r6, #1
    1790:	e3560f46 	cmp	r6, #280	; 0x118
    1794:	1a000004 	bne	17ac <draw_all+0xc8>
    1798:	ea000010 	b	17e0 <draw_all+0xfc>
        for(y = 4; y < 236; y++){
            plot_pixel(x,y,0xD637);
        }
    }
    // draw lines
    for(x = 40; x < 280 ; x++){
    179c:	e3a06028 	mov	r6, #40	; 0x28
// draw all blocks
void draw_all(){
    //clear_screen();
    int x;
    // drae main canvas
    for(x = 44; x < 276 ; x++){
    17a0:	e3a0803b 	mov	r8, #59	; 0x3b
        }
    }
    for(x = 40; x < 280 ; x++){
        int y;
        for(y = 59; y < 63; y++){
            plot_pixel(x,y,0xAD13);
    17a4:	e30a7d13 	movw	r7, #44307	; 0xad13
    17a8:	e34f7fff 	movt	r7, #65535	; 0xffff
// draw all blocks
void draw_all(){
    //clear_screen();
    int x;
    // drae main canvas
    for(x = 44; x < 276 ; x++){
    17ac:	e1a04008 	mov	r4, r8
    17b0:	eaffffee 	b	1770 <draw_all+0x8c>
        }
    }
    for(x = 40; x < 280 ; x++){
        int y;
        for(y = 118; y < 122; y++){
            plot_pixel(x,y,0xAD13);
    17b4:	e1a00006 	mov	r0, r6
    17b8:	e1a01004 	mov	r1, r4
    17bc:	e1a02007 	mov	r2, r7
    17c0:	ebfffea5 	bl	125c <plot_pixel>
            plot_pixel(x,y,0xAD13);
        }
    }
    for(x = 40; x < 280 ; x++){
        int y;
        for(y = 118; y < 122; y++){
    17c4:	e2844001 	add	r4, r4, #1
    17c8:	e354007a 	cmp	r4, #122	; 0x7a
    17cc:	1afffff8 	bne	17b4 <draw_all+0xd0>
        int y;
        for(y = 59; y < 63; y++){
            plot_pixel(x,y,0xAD13);
        }
    }
    for(x = 40; x < 280 ; x++){
    17d0:	e2866001 	add	r6, r6, #1
    17d4:	e3560f46 	cmp	r6, #280	; 0x118
    17d8:	1a000004 	bne	17f0 <draw_all+0x10c>
    17dc:	ea000010 	b	1824 <draw_all+0x140>
        int y;
        for(y = 0; y < 4; y++){
            plot_pixel(x,y,0xAD13);
        }
    }
    for(x = 40; x < 280 ; x++){
    17e0:	e3a06028 	mov	r6, #40	; 0x28
        for(y = 4; y < 236; y++){
            plot_pixel(x,y,0xD637);
        }
    }
    // draw lines
    for(x = 40; x < 280 ; x++){
    17e4:	e3a08076 	mov	r8, #118	; 0x76
        }
    }
    for(x = 40; x < 280 ; x++){
        int y;
        for(y = 118; y < 122; y++){
            plot_pixel(x,y,0xAD13);
    17e8:	e30a7d13 	movw	r7, #44307	; 0xad13
    17ec:	e34f7fff 	movt	r7, #65535	; 0xffff
        for(y = 4; y < 236; y++){
            plot_pixel(x,y,0xD637);
        }
    }
    // draw lines
    for(x = 40; x < 280 ; x++){
    17f0:	e1a04008 	mov	r4, r8
    17f4:	eaffffee 	b	17b4 <draw_all+0xd0>
        }
    }
    for(x = 40; x < 280 ; x++){
        int y;
        for(y = 177; y < 181; y++){
            plot_pixel(x,y,0xAD13);
    17f8:	e1a00006 	mov	r0, r6
    17fc:	e1a01004 	mov	r1, r4
    1800:	e1a02007 	mov	r2, r7
    1804:	ebfffe94 	bl	125c <plot_pixel>
            plot_pixel(x,y,0xAD13);
        }
    }
    for(x = 40; x < 280 ; x++){
        int y;
        for(y = 177; y < 181; y++){
    1808:	e2844001 	add	r4, r4, #1
    180c:	e35400b5 	cmp	r4, #181	; 0xb5
    1810:	1afffff8 	bne	17f8 <draw_all+0x114>
        int y;
        for(y = 118; y < 122; y++){
            plot_pixel(x,y,0xAD13);
        }
    }
    for(x = 40; x < 280 ; x++){
    1814:	e2866001 	add	r6, r6, #1
    1818:	e3560f46 	cmp	r6, #280	; 0x118
    181c:	1a000004 	bne	1834 <draw_all+0x150>
    1820:	ea000010 	b	1868 <draw_all+0x184>
        int y;
        for(y = 59; y < 63; y++){
            plot_pixel(x,y,0xAD13);
        }
    }
    for(x = 40; x < 280 ; x++){
    1824:	e3a06028 	mov	r6, #40	; 0x28
        int y;
        for(y = 0; y < 4; y++){
            plot_pixel(x,y,0xAD13);
        }
    }
    for(x = 40; x < 280 ; x++){
    1828:	e3a080b1 	mov	r8, #177	; 0xb1
        }
    }
    for(x = 40; x < 280 ; x++){
        int y;
        for(y = 177; y < 181; y++){
            plot_pixel(x,y,0xAD13);
    182c:	e30a7d13 	movw	r7, #44307	; 0xad13
    1830:	e34f7fff 	movt	r7, #65535	; 0xffff
        int y;
        for(y = 0; y < 4; y++){
            plot_pixel(x,y,0xAD13);
        }
    }
    for(x = 40; x < 280 ; x++){
    1834:	e1a04008 	mov	r4, r8
    1838:	eaffffee 	b	17f8 <draw_all+0x114>
        }
    }
    for(x = 40; x < 280 ; x++){
        int y;
        for(y = 236; y < 240; y++){
            plot_pixel(x,y,0xAD13);
    183c:	e1a00006 	mov	r0, r6
    1840:	e1a01004 	mov	r1, r4
    1844:	e1a02007 	mov	r2, r7
    1848:	ebfffe83 	bl	125c <plot_pixel>
            plot_pixel(x,y,0xAD13);
        }
    }
    for(x = 40; x < 280 ; x++){
        int y;
        for(y = 236; y < 240; y++){
    184c:	e2844001 	add	r4, r4, #1
    1850:	e35400f0 	cmp	r4, #240	; 0xf0
    1854:	1afffff8 	bne	183c <draw_all+0x158>
        int y;
        for(y = 177; y < 181; y++){
            plot_pixel(x,y,0xAD13);
        }
    }
    for(x = 40; x < 280 ; x++){
    1858:	e2866001 	add	r6, r6, #1
    185c:	e3560f46 	cmp	r6, #280	; 0x118
    1860:	1a000004 	bne	1878 <draw_all+0x194>
    1864:	ea000010 	b	18ac <draw_all+0x1c8>
        int y;
        for(y = 118; y < 122; y++){
            plot_pixel(x,y,0xAD13);
        }
    }
    for(x = 40; x < 280 ; x++){
    1868:	e3a06028 	mov	r6, #40	; 0x28
        int y;
        for(y = 59; y < 63; y++){
            plot_pixel(x,y,0xAD13);
        }
    }
    for(x = 40; x < 280 ; x++){
    186c:	e3a080ec 	mov	r8, #236	; 0xec
        }
    }
    for(x = 40; x < 280 ; x++){
        int y;
        for(y = 236; y < 240; y++){
            plot_pixel(x,y,0xAD13);
    1870:	e30a7d13 	movw	r7, #44307	; 0xad13
    1874:	e34f7fff 	movt	r7, #65535	; 0xffff
        int y;
        for(y = 59; y < 63; y++){
            plot_pixel(x,y,0xAD13);
        }
    }
    for(x = 40; x < 280 ; x++){
    1878:	e1a04008 	mov	r4, r8
    187c:	eaffffee 	b	183c <draw_all+0x158>
        }
    }
    for(x = 40; x < 44 ; x++){
        int y;
        for(y = 4; y < 236; y++){
            plot_pixel(x,y,0xAD13);
    1880:	e1a00006 	mov	r0, r6
    1884:	e1a01004 	mov	r1, r4
    1888:	e1a02007 	mov	r2, r7
    188c:	ebfffe72 	bl	125c <plot_pixel>
            plot_pixel(x,y,0xAD13);
        }
    }
    for(x = 40; x < 44 ; x++){
        int y;
        for(y = 4; y < 236; y++){
    1890:	e2844001 	add	r4, r4, #1
    1894:	e35400ec 	cmp	r4, #236	; 0xec
    1898:	1afffff8 	bne	1880 <draw_all+0x19c>
        int y;
        for(y = 236; y < 240; y++){
            plot_pixel(x,y,0xAD13);
        }
    }
    for(x = 40; x < 44 ; x++){
    189c:	e2866001 	add	r6, r6, #1
    18a0:	e356002c 	cmp	r6, #44	; 0x2c
    18a4:	1a000004 	bne	18bc <draw_all+0x1d8>
    18a8:	ea000010 	b	18f0 <draw_all+0x20c>
        int y;
        for(y = 177; y < 181; y++){
            plot_pixel(x,y,0xAD13);
        }
    }
    for(x = 40; x < 280 ; x++){
    18ac:	e3a06028 	mov	r6, #40	; 0x28
        int y;
        for(y = 118; y < 122; y++){
            plot_pixel(x,y,0xAD13);
        }
    }
    for(x = 40; x < 280 ; x++){
    18b0:	e3a08004 	mov	r8, #4
        }
    }
    for(x = 40; x < 44 ; x++){
        int y;
        for(y = 4; y < 236; y++){
            plot_pixel(x,y,0xAD13);
    18b4:	e30a7d13 	movw	r7, #44307	; 0xad13
    18b8:	e34f7fff 	movt	r7, #65535	; 0xffff
        int y;
        for(y = 118; y < 122; y++){
            plot_pixel(x,y,0xAD13);
        }
    }
    for(x = 40; x < 280 ; x++){
    18bc:	e1a04008 	mov	r4, r8
    18c0:	eaffffee 	b	1880 <draw_all+0x19c>
        }
    }
    for(x = 99; x < 103 ; x++){
        int y;
        for(y = 4; y < 236; y++){
            plot_pixel(x,y,0xAD13);
    18c4:	e1a00006 	mov	r0, r6
    18c8:	e1a01004 	mov	r1, r4
    18cc:	e1a02007 	mov	r2, r7
    18d0:	ebfffe61 	bl	125c <plot_pixel>
            plot_pixel(x,y,0xAD13);
        }
    }
    for(x = 99; x < 103 ; x++){
        int y;
        for(y = 4; y < 236; y++){
    18d4:	e2844001 	add	r4, r4, #1
    18d8:	e35400ec 	cmp	r4, #236	; 0xec
    18dc:	1afffff8 	bne	18c4 <draw_all+0x1e0>
        int y;
        for(y = 4; y < 236; y++){
            plot_pixel(x,y,0xAD13);
        }
    }
    for(x = 99; x < 103 ; x++){
    18e0:	e2866001 	add	r6, r6, #1
    18e4:	e3560067 	cmp	r6, #103	; 0x67
    18e8:	1a000004 	bne	1900 <draw_all+0x21c>
    18ec:	ea000010 	b	1934 <draw_all+0x250>
        int y;
        for(y = 236; y < 240; y++){
            plot_pixel(x,y,0xAD13);
        }
    }
    for(x = 40; x < 44 ; x++){
    18f0:	e3a06063 	mov	r6, #99	; 0x63
        int y;
        for(y = 177; y < 181; y++){
            plot_pixel(x,y,0xAD13);
        }
    }
    for(x = 40; x < 280 ; x++){
    18f4:	e3a08004 	mov	r8, #4
        }
    }
    for(x = 99; x < 103 ; x++){
        int y;
        for(y = 4; y < 236; y++){
            plot_pixel(x,y,0xAD13);
    18f8:	e30a7d13 	movw	r7, #44307	; 0xad13
    18fc:	e34f7fff 	movt	r7, #65535	; 0xffff
        int y;
        for(y = 177; y < 181; y++){
            plot_pixel(x,y,0xAD13);
        }
    }
    for(x = 40; x < 280 ; x++){
    1900:	e1a04008 	mov	r4, r8
    1904:	eaffffee 	b	18c4 <draw_all+0x1e0>
        }
    }
    for(x = 158; x < 162 ; x++){
        int y;
        for(y = 4; y < 236; y++){
            plot_pixel(x,y,0xAD13);
    1908:	e1a00006 	mov	r0, r6
    190c:	e1a01004 	mov	r1, r4
    1910:	e1a02007 	mov	r2, r7
    1914:	ebfffe50 	bl	125c <plot_pixel>
            plot_pixel(x,y,0xAD13);
        }
    }
    for(x = 158; x < 162 ; x++){
        int y;
        for(y = 4; y < 236; y++){
    1918:	e2844001 	add	r4, r4, #1
    191c:	e35400ec 	cmp	r4, #236	; 0xec
    1920:	1afffff8 	bne	1908 <draw_all+0x224>
        int y;
        for(y = 4; y < 236; y++){
            plot_pixel(x,y,0xAD13);
        }
    }
    for(x = 158; x < 162 ; x++){
    1924:	e2866001 	add	r6, r6, #1
    1928:	e35600a2 	cmp	r6, #162	; 0xa2
    192c:	1a000004 	bne	1944 <draw_all+0x260>
    1930:	ea000010 	b	1978 <draw_all+0x294>
        int y;
        for(y = 4; y < 236; y++){
            plot_pixel(x,y,0xAD13);
        }
    }
    for(x = 99; x < 103 ; x++){
    1934:	e3a0609e 	mov	r6, #158	; 0x9e
        int y;
        for(y = 236; y < 240; y++){
            plot_pixel(x,y,0xAD13);
        }
    }
    for(x = 40; x < 44 ; x++){
    1938:	e3a08004 	mov	r8, #4
        }
    }
    for(x = 158; x < 162 ; x++){
        int y;
        for(y = 4; y < 236; y++){
            plot_pixel(x,y,0xAD13);
    193c:	e30a7d13 	movw	r7, #44307	; 0xad13
    1940:	e34f7fff 	movt	r7, #65535	; 0xffff
        int y;
        for(y = 236; y < 240; y++){
            plot_pixel(x,y,0xAD13);
        }
    }
    for(x = 40; x < 44 ; x++){
    1944:	e1a04008 	mov	r4, r8
    1948:	eaffffee 	b	1908 <draw_all+0x224>
        }
    }
    for(x = 217; x < 221 ; x++){
        int y;
        for(y = 4; y < 236; y++){
            plot_pixel(x,y,0xAD13);
    194c:	e1a00006 	mov	r0, r6
    1950:	e1a01004 	mov	r1, r4
    1954:	e1a02007 	mov	r2, r7
    1958:	ebfffe3f 	bl	125c <plot_pixel>
            plot_pixel(x,y,0xAD13);
        }
    }
    for(x = 217; x < 221 ; x++){
        int y;
        for(y = 4; y < 236; y++){
    195c:	e2844001 	add	r4, r4, #1
    1960:	e35400ec 	cmp	r4, #236	; 0xec
    1964:	1afffff8 	bne	194c <draw_all+0x268>
        int y;
        for(y = 4; y < 236; y++){
            plot_pixel(x,y,0xAD13);
        }
    }
    for(x = 217; x < 221 ; x++){
    1968:	e2866001 	add	r6, r6, #1
    196c:	e35600dd 	cmp	r6, #221	; 0xdd
    1970:	1a000004 	bne	1988 <draw_all+0x2a4>
    1974:	ea000010 	b	19bc <draw_all+0x2d8>
        int y;
        for(y = 4; y < 236; y++){
            plot_pixel(x,y,0xAD13);
        }
    }
    for(x = 158; x < 162 ; x++){
    1978:	e3a060d9 	mov	r6, #217	; 0xd9
        int y;
        for(y = 4; y < 236; y++){
            plot_pixel(x,y,0xAD13);
        }
    }
    for(x = 99; x < 103 ; x++){
    197c:	e3a08004 	mov	r8, #4
        }
    }
    for(x = 217; x < 221 ; x++){
        int y;
        for(y = 4; y < 236; y++){
            plot_pixel(x,y,0xAD13);
    1980:	e30a7d13 	movw	r7, #44307	; 0xad13
    1984:	e34f7fff 	movt	r7, #65535	; 0xffff
        int y;
        for(y = 4; y < 236; y++){
            plot_pixel(x,y,0xAD13);
        }
    }
    for(x = 99; x < 103 ; x++){
    1988:	e1a04008 	mov	r4, r8
    198c:	eaffffee 	b	194c <draw_all+0x268>
        }
    }
    for(x = 276; x < 280 ; x++){
        int y;
        for(y = 4; y < 236; y++){
            plot_pixel(x,y,0xAD13);
    1990:	e1a00005 	mov	r0, r5
    1994:	e1a01004 	mov	r1, r4
    1998:	e1a02006 	mov	r2, r6
    199c:	ebfffe2e 	bl	125c <plot_pixel>
            plot_pixel(x,y,0xAD13);
        }
    }
    for(x = 276; x < 280 ; x++){
        int y;
        for(y = 4; y < 236; y++){
    19a0:	e2844001 	add	r4, r4, #1
    19a4:	e35400ec 	cmp	r4, #236	; 0xec
    19a8:	1afffff8 	bne	1990 <draw_all+0x2ac>
        int y;
        for(y = 4; y < 236; y++){
            plot_pixel(x,y,0xAD13);
        }
    }
    for(x = 276; x < 280 ; x++){
    19ac:	e2855001 	add	r5, r5, #1
    19b0:	e3550f46 	cmp	r5, #280	; 0x118
    19b4:	1a000003 	bne	19c8 <draw_all+0x2e4>
    19b8:	ea000004 	b	19d0 <draw_all+0x2ec>
        int y;
        for(y = 4; y < 236; y++){
            plot_pixel(x,y,0xAD13);
        }
    }
    for(x = 158; x < 162 ; x++){
    19bc:	e3a07004 	mov	r7, #4
        }
    }
    for(x = 276; x < 280 ; x++){
        int y;
        for(y = 4; y < 236; y++){
            plot_pixel(x,y,0xAD13);
    19c0:	e30a6d13 	movw	r6, #44307	; 0xad13
    19c4:	e34f6fff 	movt	r6, #65535	; 0xffff
        int y;
        for(y = 4; y < 236; y++){
            plot_pixel(x,y,0xAD13);
        }
    }
    for(x = 158; x < 162 ; x++){
    19c8:	e1a04007 	mov	r4, r7
    19cc:	eaffffef 	b	1990 <draw_all+0x2ac>
    19d0:	e59f5024 	ldr	r5, [pc, #36]	; 19fc <draw_all+0x318>
        int y;
        for(y = 4; y < 236; y++){
            plot_pixel(x,y,0xAD13);
        }
    }
    for(x = 276; x < 280 ; x++){
    19d4:	e3a04000 	mov	r4, #0


    int blockNum;
    int blockValue;
    for (blockNum = 0; blockNum < 16; blockNum++){
        blockValue = blocks[blockNum];
    19d8:	e5b51004 	ldr	r1, [r5, #4]!
        if (blockValue != 0)
    19dc:	e3510000 	cmp	r1, #0
    19e0:	0a000001 	beq	19ec <draw_all+0x308>
            draw_block(blockNum, blockValue);
    19e4:	e1a00004 	mov	r0, r4
    19e8:	ebfffea2 	bl	1478 <draw_block>
    }


    int blockNum;
    int blockValue;
    for (blockNum = 0; blockNum < 16; blockNum++){
    19ec:	e2844001 	add	r4, r4, #1
    19f0:	e3540010 	cmp	r4, #16
    19f4:	1afffff7 	bne	19d8 <draw_all+0x2f4>
        blockValue = blocks[blockNum];
        if (blockValue != 0)
            draw_block(blockNum, blockValue);
    }
}
    19f8:	e8bd81f0 	pop	{r4, r5, r6, r7, r8, pc}
    19fc:	00091eb4 	.word	0x00091eb4

00001a00 <draw_game_over>:

// draw gameover interface
void draw_game_over(){
    1a00:	e52de004 	push	{lr}		; (str lr, [sp, #-4]!)
    1a04:	e24dd00c 	sub	sp, sp, #12
	plot_image(0, 80, image_game_over_320x80, 320, 160);
    1a08:	e3a030a0 	mov	r3, #160	; 0xa0
    1a0c:	e58d3000 	str	r3, [sp]
    1a10:	e3a00000 	mov	r0, #0
    1a14:	e3a01050 	mov	r1, #80	; 0x50
    1a18:	e59f200c 	ldr	r2, [pc, #12]	; 1a2c <draw_game_over+0x2c>
    1a1c:	e3a03d05 	mov	r3, #320	; 0x140
    1a20:	ebfffe4f 	bl	1364 <plot_image>
}
    1a24:	e28dd00c 	add	sp, sp, #12
    1a28:	e8bd8000 	ldmfd	sp!, {pc}
    1a2c:	0002d5c8 	.word	0x0002d5c8

00001a30 <draw_win>:
// draw win interface
void draw_win(){
    1a30:	e52de004 	push	{lr}		; (str lr, [sp, #-4]!)
    1a34:	e24dd00c 	sub	sp, sp, #12
	plot_image(0, 0, image_win_320x240, 320, 240);
    1a38:	e3a030f0 	mov	r3, #240	; 0xf0
    1a3c:	e58d3000 	str	r3, [sp]
    1a40:	e3a00000 	mov	r0, #0
    1a44:	e1a01000 	mov	r1, r0
    1a48:	e59f200c 	ldr	r2, [pc, #12]	; 1a5c <draw_win+0x2c>
    1a4c:	e3a03d05 	mov	r3, #320	; 0x140
    1a50:	ebfffe43 	bl	1364 <plot_image>
}
    1a54:	e28dd00c 	add	sp, sp, #12
    1a58:	e8bd8000 	ldmfd	sp!, {pc}
    1a5c:	000465c8 	.word	0x000465c8

00001a60 <main>:
// for debug only
void print_all_block();

void wait_for_vsync();

int main(void){
    1a60:	e92d4ff8 	push	{r3, r4, r5, r6, r7, r8, r9, r10, r11, lr}
    set_A9_IRQ_stack();
    1a64:	ebfffa02 	bl	274 <set_A9_IRQ_stack>
    config_GIC();
    1a68:	ebfffa7d 	bl	464 <config_GIC>
    config_KEYs();
    1a6c:	ebfffa0a 	bl	29c <config_KEYs>
    config_PS2();
    1a70:	ebfffa0e 	bl	2b0 <config_PS2>
    enable_A9_interrupts();
    1a74:	ebfffa05 	bl	290 <enable_A9_interrupts>
    // pointer to the SW
    volatile int * SW_ptr = (int *) 0xFF200040;
    // read the value in pushbutton KEYs edge capture
    int KEY_PRESS;
    // read the value in SW
    int SW_value = * SW_ptr;
    1a78:	e3a03000 	mov	r3, #0
    1a7c:	e34f3f20 	movt	r3, #65312	; 0xff20
    1a80:	e5933040 	ldr	r3, [r3, #64]	; 0x40
    // win flag
    bool win = false;
    // game over flag
    bool gameOver = false;
    // Read location of the pixel buffer from the pixel buffer controller
    pixel_buffer_start = *pixel_ctrl_ptr;
    1a84:	e3033fff 	movw	r3, #16383	; 0x3fff
    1a88:	e34f3f20 	movt	r3, #65312	; 0xff20
    1a8c:	e5132fdf 	ldr	r2, [r3, #-4063]	; 0xfffff021
    1a90:	e3013eac 	movw	r3, #7852	; 0x1eac
    1a94:	e3403009 	movt	r3, #9
    1a98:	e5832050 	str	r2, [r3, #80]	; 0x50

    };
    clear_screen();
    // store the location of initial game 2s
    int location_init1 = generate_new_block();
    blocks[location_init1] = 2;
    1a9c:	e1a05003 	mov	r5, r3
    1aa0:	e3a09002 	mov	r9, #2
    int location_init2 = generate_new_block();
    blocks[location_init2] = 2;


    // clear the value in pushbutton KEYs edge capture
    *KEY_EDGE_ptr = 0xF;
    1aa4:	e3a04000 	mov	r4, #0
    1aa8:	e34f4f20 	movt	r4, #65312	; 0xff20
    1aac:	e3a0800f 	mov	r8, #15

    draw_all();
    SW_value = * SW_ptr;
    while(SW_value != 0b0){
    1ab0:	e3a06000 	mov	r6, #0

    new_game:
    {

    };
    clear_screen();
    1ab4:	ebfffdef 	bl	1278 <clear_screen>
    // store the location of initial game 2s
    int location_init1 = generate_new_block();
    1ab8:	ebfffa75 	bl	494 <generate_new_block>
    blocks[location_init1] = 2;
    1abc:	e0850100 	add	r0, r5, r0, lsl #2
    1ac0:	e580900c 	str	r9, [r0, #12]
    int location_init2 = generate_new_block();
    1ac4:	ebfffa72 	bl	494 <generate_new_block>
    blocks[location_init2] = 2;
    1ac8:	e0850100 	add	r0, r5, r0, lsl #2
    1acc:	e580900c 	str	r9, [r0, #12]


    // clear the value in pushbutton KEYs edge capture
    *KEY_EDGE_ptr = 0xF;
    1ad0:	e584805c 	str	r8, [r4, #92]	; 0x5c

    draw_all();
    1ad4:	ebffff02 	bl	16e4 <draw_all>
    SW_value = * SW_ptr;
    1ad8:	e5943040 	ldr	r3, [r4, #64]	; 0x40
    while(SW_value != 0b0){
    1adc:	e3530000 	cmp	r3, #0
    1ae0:	0a000005 	beq	1afc <main+0x9c>
        SW_value = * SW_ptr;
    1ae4:	e5943040 	ldr	r3, [r4, #64]	; 0x40
    // clear the value in pushbutton KEYs edge capture
    *KEY_EDGE_ptr = 0xF;

    draw_all();
    SW_value = * SW_ptr;
    while(SW_value != 0b0){
    1ae8:	e3530000 	cmp	r3, #0
    1aec:	1afffffc 	bne	1ae4 <main+0x84>
    1af0:	e1a0b006 	mov	r11, r6
    1af4:	e1a07006 	mov	r7, r6
    1af8:	ea000001 	b	1b04 <main+0xa4>
    1afc:	e1a0b006 	mov	r11, r6
    1b00:	e1a07006 	mov	r7, r6
			KEYBOARD_RIGHT = false;
            change = false;
        }
            // KEY1 pressed, move up
        else if(KEY_PRESS == 0b0010 || KEYBOARD_LEFT){
            change_block_data(3,2,1,0);
    1b04:	e3a0a001 	mov	r10, #1
    while(SW_value != 0b0){
        SW_value = * SW_ptr;
    }
    while(!win && !gameOver && SW_value == 0b0){

        KEY_PRESS = *KEY_EDGE_ptr;
    1b08:	e594305c 	ldr	r3, [r4, #92]	; 0x5c



        // KEY0 pressed, move down
        if(KEY_PRESS == 0b0001 || KEYBOARD_RIGHT){
    1b0c:	e3530001 	cmp	r3, #1
    1b10:	0a000002 	beq	1b20 <main+0xc0>
    1b14:	e5d5200a 	ldrb	r2, [r5, #10]
    1b18:	e3520000 	cmp	r2, #0
    1b1c:	0a000031 	beq	1be8 <main+0x188>
            change_block_data(0,1,2,3);
    1b20:	e1a00006 	mov	r0, r6
    1b24:	e1a0100a 	mov	r1, r10
    1b28:	e1a02009 	mov	r2, r9
    1b2c:	e3a03003 	mov	r3, #3
    1b30:	ebfffa71 	bl	4fc <change_block_data>
            change_block_data(4,5,6,7);
    1b34:	e3a00004 	mov	r0, #4
    1b38:	e3a01005 	mov	r1, #5
    1b3c:	e3a02006 	mov	r2, #6
    1b40:	e3a03007 	mov	r3, #7
    1b44:	ebfffa6c 	bl	4fc <change_block_data>
            change_block_data(8,9,10,11);
    1b48:	e3a00008 	mov	r0, #8
    1b4c:	e3a01009 	mov	r1, #9
    1b50:	e3a0200a 	mov	r2, #10
    1b54:	e3a0300b 	mov	r3, #11
    1b58:	ebfffa67 	bl	4fc <change_block_data>
            change_block_data(12,13,14,15);
    1b5c:	e3a0000c 	mov	r0, #12
    1b60:	e3a0100d 	mov	r1, #13
    1b64:	e3a0200e 	mov	r2, #14
    1b68:	e1a03008 	mov	r3, r8
    1b6c:	ebfffa62 	bl	4fc <change_block_data>
            win = win_f();
    1b70:	ebfffd9d 	bl	11ec <win_f>
    1b74:	e1a07000 	mov	r7, r0
			if(gameboard_full()){
    1b78:	ebfffd02 	bl	f88 <gameboard_full>
    1b7c:	e3500000 	cmp	r0, #0
    1b80:	0a00000b 	beq	1bb4 <main+0x154>
				if(!available_move()){
    1b84:	ebfffd1b 	bl	ff8 <available_move>
    1b88:	e3500000 	cmp	r0, #0
					gameOver = true;
    1b8c:	01a0b00a 	moveq	r11, r10
            change_block_data(4,5,6,7);
            change_block_data(8,9,10,11);
            change_block_data(12,13,14,15);
            win = win_f();
			if(gameboard_full()){
				if(!available_move()){
    1b90:	0a00000f 	beq	1bd4 <main+0x174>
					gameOver = true;
				}
				else{
					if(change) {
    1b94:	e5d5304c 	ldrb	r3, [r5, #76]	; 0x4c
    1b98:	e3530000 	cmp	r3, #0
    1b9c:	0a000002 	beq	1bac <main+0x14c>
                    location_inGame = generate_new_block();
    1ba0:	ebfffa3b 	bl	494 <generate_new_block>
                    blocks[location_inGame] = 2;
    1ba4:	e0850100 	add	r0, r5, r0, lsl #2
    1ba8:	e580900c 	str	r9, [r0, #12]
                }
                draw_all();
    1bac:	ebfffecc 	bl	16e4 <draw_all>
    1bb0:	ea000007 	b	1bd4 <main+0x174>
				}
			}
			else{
				if(change) {
    1bb4:	e5d5304c 	ldrb	r3, [r5, #76]	; 0x4c
    1bb8:	e3530000 	cmp	r3, #0
    1bbc:	0a000002 	beq	1bcc <main+0x16c>
                    location_inGame = generate_new_block();
    1bc0:	ebfffa33 	bl	494 <generate_new_block>
                    blocks[location_inGame] = 2;
    1bc4:	e0850100 	add	r0, r5, r0, lsl #2
    1bc8:	e580900c 	str	r9, [r0, #12]
                }
                draw_all();
    1bcc:	ebfffec4 	bl	16e4 <draw_all>
    1bd0:	eaffffff 	b	1bd4 <main+0x174>
			}
		

            * LEDR_ptr = 0b0001;
    1bd4:	e584a000 	str	r10, [r4]
            * KEY_EDGE_ptr = 0xF;
    1bd8:	e584805c 	str	r8, [r4, #92]	; 0x5c
			KEYBOARD_RIGHT = false;
    1bdc:	e5c5600a 	strb	r6, [r5, #10]
            change = false;
    1be0:	e5c5604c 	strb	r6, [r5, #76]	; 0x4c
    1be4:	ea0000a5 	b	1e80 <main+0x420>
        }
            // KEY1 pressed, move up
        else if(KEY_PRESS == 0b0010 || KEYBOARD_LEFT){
    1be8:	e3530002 	cmp	r3, #2
    1bec:	0a000002 	beq	1bfc <main+0x19c>
    1bf0:	e5d52009 	ldrb	r2, [r5, #9]
    1bf4:	e3520000 	cmp	r2, #0
    1bf8:	0a000031 	beq	1cc4 <main+0x264>
            change_block_data(3,2,1,0);
    1bfc:	e3a00003 	mov	r0, #3
    1c00:	e1a01009 	mov	r1, r9
    1c04:	e1a0200a 	mov	r2, r10
    1c08:	e1a03006 	mov	r3, r6
    1c0c:	ebfffa3a 	bl	4fc <change_block_data>
            change_block_data(7,6,5,4);
    1c10:	e3a00007 	mov	r0, #7
    1c14:	e3a01006 	mov	r1, #6
    1c18:	e3a02005 	mov	r2, #5
    1c1c:	e3a03004 	mov	r3, #4
    1c20:	ebfffa35 	bl	4fc <change_block_data>
            change_block_data(11,10,9,8);
    1c24:	e3a0000b 	mov	r0, #11
    1c28:	e3a0100a 	mov	r1, #10
    1c2c:	e3a02009 	mov	r2, #9
    1c30:	e3a03008 	mov	r3, #8
    1c34:	ebfffa30 	bl	4fc <change_block_data>
            change_block_data(15,14,13,12);
    1c38:	e1a00008 	mov	r0, r8
    1c3c:	e3a0100e 	mov	r1, #14
    1c40:	e3a0200d 	mov	r2, #13
    1c44:	e3a0300c 	mov	r3, #12
    1c48:	ebfffa2b 	bl	4fc <change_block_data>
            win = win_f();
    1c4c:	ebfffd66 	bl	11ec <win_f>
    1c50:	e1a07000 	mov	r7, r0
            if(gameboard_full()){
    1c54:	ebfffccb 	bl	f88 <gameboard_full>
    1c58:	e3500000 	cmp	r0, #0
    1c5c:	0a00000b 	beq	1c90 <main+0x230>
				if(!available_move()){
    1c60:	ebfffce4 	bl	ff8 <available_move>
    1c64:	e3500000 	cmp	r0, #0
					gameOver = true;
    1c68:	01a0b00a 	moveq	r11, r10
            change_block_data(7,6,5,4);
            change_block_data(11,10,9,8);
            change_block_data(15,14,13,12);
            win = win_f();
            if(gameboard_full()){
				if(!available_move()){
    1c6c:	0a00000f 	beq	1cb0 <main+0x250>
					gameOver = true;
				}
				else{
					if(change) {
    1c70:	e5d5304c 	ldrb	r3, [r5, #76]	; 0x4c
    1c74:	e3530000 	cmp	r3, #0
    1c78:	0a000002 	beq	1c88 <main+0x228>
                    location_inGame = generate_new_block();
    1c7c:	ebfffa04 	bl	494 <generate_new_block>
                    blocks[location_inGame] = 2;
    1c80:	e0850100 	add	r0, r5, r0, lsl #2
    1c84:	e580900c 	str	r9, [r0, #12]
                }
                draw_all();
    1c88:	ebfffe95 	bl	16e4 <draw_all>
    1c8c:	ea000007 	b	1cb0 <main+0x250>
				}
			}
			else{
				if(change) {
    1c90:	e5d5304c 	ldrb	r3, [r5, #76]	; 0x4c
    1c94:	e3530000 	cmp	r3, #0
    1c98:	0a000002 	beq	1ca8 <main+0x248>
                    location_inGame = generate_new_block();
    1c9c:	ebfff9fc 	bl	494 <generate_new_block>
                    blocks[location_inGame] = 2;
    1ca0:	e0850100 	add	r0, r5, r0, lsl #2
    1ca4:	e580900c 	str	r9, [r0, #12]
                }
                draw_all();
    1ca8:	ebfffe8d 	bl	16e4 <draw_all>
    1cac:	eaffffff 	b	1cb0 <main+0x250>
			}
            * LEDR_ptr = 0b0010;
    1cb0:	e5849000 	str	r9, [r4]
            * KEY_EDGE_ptr = 0xF;
    1cb4:	e584805c 	str	r8, [r4, #92]	; 0x5c
			KEYBOARD_LEFT = false;
    1cb8:	e5c56009 	strb	r6, [r5, #9]
            change = false;
    1cbc:	e5c5604c 	strb	r6, [r5, #76]	; 0x4c
    1cc0:	ea00006e 	b	1e80 <main+0x420>
        }
            // KEY2 pressed, move right
        else if(KEY_PRESS == 0b0100 || KEYBOARD_DOWN){
    1cc4:	e3530004 	cmp	r3, #4
    1cc8:	0a000002 	beq	1cd8 <main+0x278>
    1ccc:	e5d52008 	ldrb	r2, [r5, #8]
    1cd0:	e3520000 	cmp	r2, #0
    1cd4:	0a000032 	beq	1da4 <main+0x344>
            change_block_data(0,4,8,12);
    1cd8:	e1a00006 	mov	r0, r6
    1cdc:	e3a01004 	mov	r1, #4
    1ce0:	e3a02008 	mov	r2, #8
    1ce4:	e3a0300c 	mov	r3, #12
    1ce8:	ebfffa03 	bl	4fc <change_block_data>
            change_block_data(1,5,9,13);
    1cec:	e1a0000a 	mov	r0, r10
    1cf0:	e3a01005 	mov	r1, #5
    1cf4:	e3a02009 	mov	r2, #9
    1cf8:	e3a0300d 	mov	r3, #13
    1cfc:	ebfff9fe 	bl	4fc <change_block_data>
            change_block_data(2,6,10,14);
    1d00:	e1a00009 	mov	r0, r9
    1d04:	e3a01006 	mov	r1, #6
    1d08:	e3a0200a 	mov	r2, #10
    1d0c:	e3a0300e 	mov	r3, #14
    1d10:	ebfff9f9 	bl	4fc <change_block_data>
            change_block_data(3,7,11,15);
    1d14:	e3a00003 	mov	r0, #3
    1d18:	e3a01007 	mov	r1, #7
    1d1c:	e3a0200b 	mov	r2, #11
    1d20:	e1a03008 	mov	r3, r8
    1d24:	ebfff9f4 	bl	4fc <change_block_data>
            win = win_f();
    1d28:	ebfffd2f 	bl	11ec <win_f>
    1d2c:	e1a07000 	mov	r7, r0
            if(gameboard_full()){
    1d30:	ebfffc94 	bl	f88 <gameboard_full>
    1d34:	e3500000 	cmp	r0, #0
    1d38:	0a00000b 	beq	1d6c <main+0x30c>
				if(!available_move()){
    1d3c:	ebfffcad 	bl	ff8 <available_move>
    1d40:	e3500000 	cmp	r0, #0
					gameOver = true;
    1d44:	01a0b00a 	moveq	r11, r10
            change_block_data(1,5,9,13);
            change_block_data(2,6,10,14);
            change_block_data(3,7,11,15);
            win = win_f();
            if(gameboard_full()){
				if(!available_move()){
    1d48:	0a00000f 	beq	1d8c <main+0x32c>
					gameOver = true;
				}
				else{
					if(change) {
    1d4c:	e5d5304c 	ldrb	r3, [r5, #76]	; 0x4c
    1d50:	e3530000 	cmp	r3, #0
    1d54:	0a000002 	beq	1d64 <main+0x304>
                    location_inGame = generate_new_block();
    1d58:	ebfff9cd 	bl	494 <generate_new_block>
                    blocks[location_inGame] = 2;
    1d5c:	e0850100 	add	r0, r5, r0, lsl #2
    1d60:	e580900c 	str	r9, [r0, #12]
                }
                draw_all();
    1d64:	ebfffe5e 	bl	16e4 <draw_all>
    1d68:	ea000007 	b	1d8c <main+0x32c>
				}
			}
			else{
				if(change) {
    1d6c:	e5d5304c 	ldrb	r3, [r5, #76]	; 0x4c
    1d70:	e3530000 	cmp	r3, #0
    1d74:	0a000002 	beq	1d84 <main+0x324>
                    location_inGame = generate_new_block();
    1d78:	ebfff9c5 	bl	494 <generate_new_block>
                    blocks[location_inGame] = 2;
    1d7c:	e0850100 	add	r0, r5, r0, lsl #2
    1d80:	e580900c 	str	r9, [r0, #12]
                }
                draw_all();
    1d84:	ebfffe56 	bl	16e4 <draw_all>
    1d88:	eaffffff 	b	1d8c <main+0x32c>
			}
            * LEDR_ptr = 0b0100;
    1d8c:	e3a03004 	mov	r3, #4
    1d90:	e5843000 	str	r3, [r4]
            * KEY_EDGE_ptr = 0xF;
    1d94:	e584805c 	str	r8, [r4, #92]	; 0x5c
			KEYBOARD_DOWN = false;
    1d98:	e5c56008 	strb	r6, [r5, #8]
            change = false;
    1d9c:	e5c5604c 	strb	r6, [r5, #76]	; 0x4c
    1da0:	ea000036 	b	1e80 <main+0x420>
        }
            // KEY1 pressed, move left
        else if(KEY_PRESS == 0b1000 || KEYBOARD_UP){
    1da4:	e3530008 	cmp	r3, #8
    1da8:	0a000002 	beq	1db8 <main+0x358>
    1dac:	e5d53007 	ldrb	r3, [r5, #7]
    1db0:	e3530000 	cmp	r3, #0
    1db4:	0a000031 	beq	1e80 <main+0x420>
            change_block_data(12,8,4,0);
    1db8:	e3a0000c 	mov	r0, #12
    1dbc:	e3a01008 	mov	r1, #8
    1dc0:	e3a02004 	mov	r2, #4
    1dc4:	e1a03006 	mov	r3, r6
    1dc8:	ebfff9cb 	bl	4fc <change_block_data>
            change_block_data(13,9,5,1);
    1dcc:	e3a0000d 	mov	r0, #13
    1dd0:	e3a01009 	mov	r1, #9
    1dd4:	e3a02005 	mov	r2, #5
    1dd8:	e1a0300a 	mov	r3, r10
    1ddc:	ebfff9c6 	bl	4fc <change_block_data>
            change_block_data(14,10,6,2);
    1de0:	e3a0000e 	mov	r0, #14
    1de4:	e3a0100a 	mov	r1, #10
    1de8:	e3a02006 	mov	r2, #6
    1dec:	e1a03009 	mov	r3, r9
    1df0:	ebfff9c1 	bl	4fc <change_block_data>
            change_block_data(15,11,7,3);
    1df4:	e1a00008 	mov	r0, r8
    1df8:	e3a0100b 	mov	r1, #11
    1dfc:	e3a02007 	mov	r2, #7
    1e00:	e3a03003 	mov	r3, #3
    1e04:	ebfff9bc 	bl	4fc <change_block_data>
            win = win_f();
    1e08:	ebfffcf7 	bl	11ec <win_f>
    1e0c:	e1a07000 	mov	r7, r0
            if(gameboard_full()){
    1e10:	ebfffc5c 	bl	f88 <gameboard_full>
    1e14:	e3500000 	cmp	r0, #0
    1e18:	0a00000b 	beq	1e4c <main+0x3ec>
				if(!available_move()){
    1e1c:	ebfffc75 	bl	ff8 <available_move>
    1e20:	e3500000 	cmp	r0, #0
					gameOver = true;
    1e24:	01a0b00a 	moveq	r11, r10
            change_block_data(13,9,5,1);
            change_block_data(14,10,6,2);
            change_block_data(15,11,7,3);
            win = win_f();
            if(gameboard_full()){
				if(!available_move()){
    1e28:	0a00000f 	beq	1e6c <main+0x40c>
					gameOver = true;
				}
				else{
					if(change) {
    1e2c:	e5d5304c 	ldrb	r3, [r5, #76]	; 0x4c
    1e30:	e3530000 	cmp	r3, #0
    1e34:	0a000002 	beq	1e44 <main+0x3e4>
                    location_inGame = generate_new_block();
    1e38:	ebfff995 	bl	494 <generate_new_block>
                    blocks[location_inGame] = 2;
    1e3c:	e0850100 	add	r0, r5, r0, lsl #2
    1e40:	e580900c 	str	r9, [r0, #12]
                }
                draw_all();
    1e44:	ebfffe26 	bl	16e4 <draw_all>
    1e48:	ea000007 	b	1e6c <main+0x40c>
				}
			}
			else{
				if(change) {
    1e4c:	e5d5304c 	ldrb	r3, [r5, #76]	; 0x4c
    1e50:	e3530000 	cmp	r3, #0
    1e54:	0a000002 	beq	1e64 <main+0x404>
                    location_inGame = generate_new_block();
    1e58:	ebfff98d 	bl	494 <generate_new_block>
                    blocks[location_inGame] = 2;
    1e5c:	e0850100 	add	r0, r5, r0, lsl #2
    1e60:	e580900c 	str	r9, [r0, #12]
                }
                draw_all();
    1e64:	ebfffe1e 	bl	16e4 <draw_all>
    1e68:	eaffffff 	b	1e6c <main+0x40c>
			}
            * LEDR_ptr = 0b1000;
    1e6c:	e3a03008 	mov	r3, #8
    1e70:	e5843000 	str	r3, [r4]
            * KEY_EDGE_ptr = 0xF;
    1e74:	e584805c 	str	r8, [r4, #92]	; 0x5c
			KEYBOARD_UP = false;
    1e78:	e5c56007 	strb	r6, [r5, #7]
            change = false;
    1e7c:	e5c5604c 	strb	r6, [r5, #76]	; 0x4c
        }
        SW_value = * SW_ptr;
    1e80:	e5941040 	ldr	r1, [r4, #64]	; 0x40
    draw_all();
    SW_value = * SW_ptr;
    while(SW_value != 0b0){
        SW_value = * SW_ptr;
    }
    while(!win && !gameOver && SW_value == 0b0){
    1e84:	e22b2001 	eor	r2, r11, #1
    1e88:	e2273001 	eor	r3, r7, #1
    1e8c:	e1120003 	tst	r2, r3
    1e90:	0a000001 	beq	1e9c <main+0x43c>
    1e94:	e3510000 	cmp	r1, #0
    1e98:	0affff1a 	beq	1b08 <main+0xa8>
        }
        SW_value = * SW_ptr;

    }

	wait_for_vsync();
    1e9c:	ebfffd23 	bl	1330 <wait_for_vsync>
	wait_for_vsync();
    1ea0:	ebfffd22 	bl	1330 <wait_for_vsync>
	wait_for_vsync();
    1ea4:	ebfffd21 	bl	1330 <wait_for_vsync>
	wait_for_vsync();
    1ea8:	ebfffd20 	bl	1330 <wait_for_vsync>
	wait_for_vsync();
    1eac:	ebfffd1f 	bl	1330 <wait_for_vsync>
	wait_for_vsync();
    1eb0:	ebfffd1e 	bl	1330 <wait_for_vsync>
	wait_for_vsync();
    1eb4:	ebfffd1d 	bl	1330 <wait_for_vsync>
	wait_for_vsync();
    1eb8:	ebfffd1c 	bl	1330 <wait_for_vsync>
	wait_for_vsync();
    1ebc:	ebfffd1b 	bl	1330 <wait_for_vsync>
	wait_for_vsync();
    1ec0:	ebfffd1a 	bl	1330 <wait_for_vsync>
	wait_for_vsync();
    1ec4:	ebfffd19 	bl	1330 <wait_for_vsync>
	
    if(win){
    1ec8:	e3570000 	cmp	r7, #0
    1ecc:	0a000000 	beq	1ed4 <main+0x474>
		draw_win();
    1ed0:	ebfffed6 	bl	1a30 <draw_win>
    }

    if(gameOver){
    1ed4:	e35b0000 	cmp	r11, #0
    1ed8:	0a000001 	beq	1ee4 <main+0x484>
		clear_screen();
    1edc:	ebfffce5 	bl	1278 <clear_screen>
		draw_game_over();
    1ee0:	ebfffec6 	bl	1a00 <draw_game_over>
    }

    // read SW value
    SW_value = * SW_ptr;
    1ee4:	e5943040 	ldr	r3, [r4, #64]	; 0x40
    if(SW_value ==0b0){

    }

    while(SW_value == 0b0){
    1ee8:	e3530000 	cmp	r3, #0
    1eec:	1afffef0 	bne	1ab4 <main+0x54>
        SW_value = * SW_ptr;
    1ef0:	e5943040 	ldr	r3, [r4, #64]	; 0x40
    SW_value = * SW_ptr;
    if(SW_value ==0b0){

    }

    while(SW_value == 0b0){
    1ef4:	e3530000 	cmp	r3, #0
    1ef8:	1afffeed 	bne	1ab4 <main+0x54>
    1efc:	eafffffb 	b	1ef0 <main+0x490>

00001f00 <atexit>:
    1f00:	e1a01000 	mov	r1, r0
    1f04:	e3a00000 	mov	r0, #0
    1f08:	e92d4008 	push	{r3, lr}
    1f0c:	e1a02000 	mov	r2, r0
    1f10:	e1a03000 	mov	r3, r0
    1f14:	eb0008f7 	bl	42f8 <__register_exitproc>
    1f18:	e8bd4008 	pop	{r3, lr}
    1f1c:	e12fff1e 	bx	lr

00001f20 <exit>:
    1f20:	e92d4008 	push	{r3, lr}
    1f24:	e3a01000 	mov	r1, #0
    1f28:	e1a04000 	mov	r4, r0
    1f2c:	eb00092e 	bl	43ec <__call_exitprocs>
    1f30:	e59f3018 	ldr	r3, [pc, #24]	; 1f50 <exit+0x30>
    1f34:	e5930000 	ldr	r0, [r3]
    1f38:	e590303c 	ldr	r3, [r0, #60]	; 0x3c
    1f3c:	e3530000 	cmp	r3, #0
    1f40:	11a0e00f 	movne	lr, pc
    1f44:	112fff13 	bxne	r3
    1f48:	e1a00004 	mov	r0, r4
    1f4c:	eb00297d 	bl	c548 <_exit>
    1f50:	0000cba8 	.word	0x0000cba8

00001f54 <_printf_r>:
    1f54:	e92d000e 	push	{r1, r2, r3}
    1f58:	e52de004 	push	{lr}		; (str lr, [sp, #-4]!)
    1f5c:	e24dd008 	sub	sp, sp, #8
    1f60:	e28dc010 	add	r12, sp, #16
    1f64:	e5901008 	ldr	r1, [r0, #8]
    1f68:	e59d200c 	ldr	r2, [sp, #12]
    1f6c:	e1a0300c 	mov	r3, r12
    1f70:	e58dc004 	str	r12, [sp, #4]
    1f74:	eb000031 	bl	2040 <_vfprintf_r>
    1f78:	e28dd008 	add	sp, sp, #8
    1f7c:	e49de004 	pop	{lr}		; (ldr lr, [sp], #4)
    1f80:	e28dd00c 	add	sp, sp, #12
    1f84:	e12fff1e 	bx	lr

00001f88 <printf>:
    1f88:	e92d000f 	push	{r0, r1, r2, r3}
    1f8c:	e52de004 	push	{lr}		; (str lr, [sp, #-4]!)
    1f90:	e59f302c 	ldr	r3, [pc, #44]	; 1fc4 <printf+0x3c>
    1f94:	e24dd00c 	sub	sp, sp, #12
    1f98:	e5930000 	ldr	r0, [r3]
    1f9c:	e28dc014 	add	r12, sp, #20
    1fa0:	e5901008 	ldr	r1, [r0, #8]
    1fa4:	e59d2010 	ldr	r2, [sp, #16]
    1fa8:	e1a0300c 	mov	r3, r12
    1fac:	e58dc004 	str	r12, [sp, #4]
    1fb0:	eb000022 	bl	2040 <_vfprintf_r>
    1fb4:	e28dd00c 	add	sp, sp, #12
    1fb8:	e49de004 	pop	{lr}		; (ldr lr, [sp], #4)
    1fbc:	e28dd010 	add	sp, sp, #16
    1fc0:	e12fff1e 	bx	lr
    1fc4:	000915c8 	.word	0x000915c8

00001fc8 <srand>:
    1fc8:	e59f3010 	ldr	r3, [pc, #16]	; 1fe0 <srand+0x18>
    1fcc:	e5933000 	ldr	r3, [r3]
    1fd0:	e3a02000 	mov	r2, #0
    1fd4:	e58300a8 	str	r0, [r3, #168]	; 0xa8
    1fd8:	e58320ac 	str	r2, [r3, #172]	; 0xac
    1fdc:	e12fff1e 	bx	lr
    1fe0:	000915c8 	.word	0x000915c8

00001fe4 <rand>:
    1fe4:	e52d4004 	push	{r4}		; (str r4, [sp, #-4]!)
    1fe8:	e59f3044 	ldr	r3, [pc, #68]	; 2034 <rand+0x50>
    1fec:	e593c000 	ldr	r12, [r3]
    1ff0:	e59f4040 	ldr	r4, [pc, #64]	; 2038 <rand+0x54>
    1ff4:	e59c20a8 	ldr	r2, [r12, #168]	; 0xa8
    1ff8:	e0040492 	mul	r4, r2, r4
    1ffc:	e59c10ac 	ldr	r1, [r12, #172]	; 0xac
    2000:	e59f3034 	ldr	r3, [pc, #52]	; 203c <rand+0x58>
    2004:	e0244193 	mla	r4, r3, r1, r4
    2008:	e0810392 	umull	r0, r1, r2, r3
    200c:	e3a02001 	mov	r2, #1
    2010:	e0922000 	adds	r2, r2, r0
    2014:	e0841001 	add	r1, r4, r1
    2018:	e3a03000 	mov	r3, #0
    201c:	e0a33001 	adc	r3, r3, r1
    2020:	e58c20a8 	str	r2, [r12, #168]	; 0xa8
    2024:	e58c30ac 	str	r3, [r12, #172]	; 0xac
    2028:	e3c30102 	bic	r0, r3, #-2147483648	; 0x80000000
    202c:	e8bd0010 	ldmfd	sp!, {r4}
    2030:	e12fff1e 	bx	lr
    2034:	000915c8 	.word	0x000915c8
    2038:	5851f42d 	.word	0x5851f42d
    203c:	4c957f2d 	.word	0x4c957f2d

00002040 <_vfprintf_r>:
    2040:	e92d4ff0 	push	{r4, r5, r6, r7, r8, r9, r10, r11, lr}
    2044:	e24ddd15 	sub	sp, sp, #1344	; 0x540
    2048:	e24dd004 	sub	sp, sp, #4
    204c:	e1a09001 	mov	r9, r1
    2050:	e1a04002 	mov	r4, r2
    2054:	e58d303c 	str	r3, [sp, #60]	; 0x3c
    2058:	e58d002c 	str	r0, [sp, #44]	; 0x2c
    205c:	eb001218 	bl	68c4 <_localeconv_r>
    2060:	e5900000 	ldr	r0, [r0]
    2064:	e58d0058 	str	r0, [sp, #88]	; 0x58
    2068:	eb00198f 	bl	86ac <strlen>
    206c:	e59d602c 	ldr	r6, [sp, #44]	; 0x2c
    2070:	e3a0b000 	mov	r11, #0
    2074:	e3a0c000 	mov	r12, #0
    2078:	e3560000 	cmp	r6, #0
    207c:	e58d0064 	str	r0, [sp, #100]	; 0x64
    2080:	e58db068 	str	r11, [sp, #104]	; 0x68
    2084:	e58dc06c 	str	r12, [sp, #108]	; 0x6c
    2088:	0a000002 	beq	2098 <_vfprintf_r+0x58>
    208c:	e5963038 	ldr	r3, [r6, #56]	; 0x38
    2090:	e3530000 	cmp	r3, #0
    2094:	0a000101 	beq	24a0 <_vfprintf_r+0x460>
    2098:	e1d980bc 	ldrh	r8, [r9, #12]
    209c:	e3180a02 	tst	r8, #8192	; 0x2000
    20a0:	05993064 	ldreq	r3, [r9, #100]	; 0x64
    20a4:	03888a02 	orreq	r8, r8, #8192	; 0x2000
    20a8:	03c33a02 	biceq	r3, r3, #8192	; 0x2000
    20ac:	01c980bc 	strheq	r8, [r9, #12]
    20b0:	05893064 	streq	r3, [r9, #100]	; 0x64
    20b4:	e3180008 	tst	r8, #8
    20b8:	0a0000aa 	beq	2368 <_vfprintf_r+0x328>
    20bc:	e5993010 	ldr	r3, [r9, #16]
    20c0:	e3530000 	cmp	r3, #0
    20c4:	0a0000a7 	beq	2368 <_vfprintf_r+0x328>
    20c8:	e208301a 	and	r3, r8, #26
    20cc:	e353000a 	cmp	r3, #10
    20d0:	0a0000c4 	beq	23e8 <_vfprintf_r+0x3a8>
    20d4:	e28d60d8 	add	r6, sp, #216	; 0xd8
    20d8:	e28d70d7 	add	r7, sp, #215	; 0xd7
    20dc:	e3a03000 	mov	r3, #0
    20e0:	e28dbd05 	add	r11, sp, #320	; 0x140
    20e4:	e58d4028 	str	r4, [sp, #40]	; 0x28
    20e8:	e0674006 	rsb	r4, r7, r6
    20ec:	e58d3044 	str	r3, [sp, #68]	; 0x44
    20f0:	e58d6054 	str	r6, [sp, #84]	; 0x54
    20f4:	e58d705c 	str	r7, [sp, #92]	; 0x5c
    20f8:	e58db0a4 	str	r11, [sp, #164]	; 0xa4
    20fc:	e58d30ac 	str	r3, [sp, #172]	; 0xac
    2100:	e58d30a8 	str	r3, [sp, #168]	; 0xa8
    2104:	e58d3074 	str	r3, [sp, #116]	; 0x74
    2108:	e58d3070 	str	r3, [sp, #112]	; 0x70
    210c:	e58d3034 	str	r3, [sp, #52]	; 0x34
    2110:	e58d407c 	str	r4, [sp, #124]	; 0x7c
    2114:	e58d901c 	str	r9, [sp, #28]
    2118:	e1a0c00b 	mov	r12, r11
    211c:	e1a0500b 	mov	r5, r11
    2120:	e59d6028 	ldr	r6, [sp, #40]	; 0x28
    2124:	e5d63000 	ldrb	r3, [r6]
    2128:	e3530025 	cmp	r3, #37	; 0x25
    212c:	13530000 	cmpne	r3, #0
    2130:	0a0000dd 	beq	24ac <_vfprintf_r+0x46c>
    2134:	e2863001 	add	r3, r6, #1
    2138:	e1a07003 	mov	r7, r3
    213c:	e5d33000 	ldrb	r3, [r3]
    2140:	e3530025 	cmp	r3, #37	; 0x25
    2144:	13530000 	cmpne	r3, #0
    2148:	e2873001 	add	r3, r7, #1
    214c:	1afffff9 	bne	2138 <_vfprintf_r+0xf8>
    2150:	e59dc028 	ldr	r12, [sp, #40]	; 0x28
    2154:	e057800c 	subs	r8, r7, r12
    2158:	0a00000d 	beq	2194 <_vfprintf_r+0x154>
    215c:	e28d40a8 	add	r4, sp, #168	; 0xa8
    2160:	e8940050 	ldm	r4, {r4, r6}
    2164:	e2844001 	add	r4, r4, #1
    2168:	e0866008 	add	r6, r6, r8
    216c:	e3540007 	cmp	r4, #7
    2170:	e585c000 	str	r12, [r5]
    2174:	e5858004 	str	r8, [r5, #4]
    2178:	e58d60ac 	str	r6, [sp, #172]	; 0xac
    217c:	e58d40a8 	str	r4, [sp, #168]	; 0xa8
    2180:	d2855008 	addle	r5, r5, #8
    2184:	ca000084 	bgt	239c <_vfprintf_r+0x35c>
    2188:	e59d4034 	ldr	r4, [sp, #52]	; 0x34
    218c:	e0844008 	add	r4, r4, r8
    2190:	e58d4034 	str	r4, [sp, #52]	; 0x34
    2194:	e5d73000 	ldrb	r3, [r7]
    2198:	e3530000 	cmp	r3, #0
    219c:	0a000699 	beq	3c08 <_vfprintf_r+0x1bc8>
    21a0:	e2876001 	add	r6, r7, #1
    21a4:	e3a03000 	mov	r3, #0
    21a8:	e58d6028 	str	r6, [sp, #40]	; 0x28
    21ac:	e5d78001 	ldrb	r8, [r7, #1]
    21b0:	e58d3030 	str	r3, [sp, #48]	; 0x30
    21b4:	e5cd3083 	strb	r3, [sp, #131]	; 0x83
    21b8:	e58d3018 	str	r3, [sp, #24]
    21bc:	e3e04000 	mvn	r4, #0
    21c0:	e3a01020 	mov	r1, #32
    21c4:	e3a0202b 	mov	r2, #43	; 0x2b
    21c8:	e1a03006 	mov	r3, r6
    21cc:	e2833001 	add	r3, r3, #1
    21d0:	e2480020 	sub	r0, r8, #32
    21d4:	e3500058 	cmp	r0, #88	; 0x58
    21d8:	979ff100 	ldrls	pc, [pc, r0, lsl #2]
    21dc:	ea000224 	b	2a74 <_vfprintf_r+0xa34>
    21e0:	00002ab0 	.word	0x00002ab0
    21e4:	00002a74 	.word	0x00002a74
    21e8:	00002a74 	.word	0x00002a74
    21ec:	00002ac8 	.word	0x00002ac8
    21f0:	00002a74 	.word	0x00002a74
    21f4:	00002a74 	.word	0x00002a74
    21f8:	00002a74 	.word	0x00002a74
    21fc:	00002a74 	.word	0x00002a74
    2200:	00002a74 	.word	0x00002a74
    2204:	00002a74 	.word	0x00002a74
    2208:	00002adc 	.word	0x00002adc
    220c:	000024b4 	.word	0x000024b4
    2210:	00002a74 	.word	0x00002a74
    2214:	00002354 	.word	0x00002354
    2218:	000024c0 	.word	0x000024c0
    221c:	00002a74 	.word	0x00002a74
    2220:	0000250c 	.word	0x0000250c
    2224:	00002520 	.word	0x00002520
    2228:	00002520 	.word	0x00002520
    222c:	00002520 	.word	0x00002520
    2230:	00002520 	.word	0x00002520
    2234:	00002520 	.word	0x00002520
    2238:	00002520 	.word	0x00002520
    223c:	00002520 	.word	0x00002520
    2240:	00002520 	.word	0x00002520
    2244:	00002520 	.word	0x00002520
    2248:	00002a74 	.word	0x00002a74
    224c:	00002a74 	.word	0x00002a74
    2250:	00002a74 	.word	0x00002a74
    2254:	00002a74 	.word	0x00002a74
    2258:	00002a74 	.word	0x00002a74
    225c:	00002a74 	.word	0x00002a74
    2260:	00002a74 	.word	0x00002a74
    2264:	00002a74 	.word	0x00002a74
    2268:	00002a74 	.word	0x00002a74
    226c:	00002a74 	.word	0x00002a74
    2270:	00002550 	.word	0x00002550
    2274:	0000278c 	.word	0x0000278c
    2278:	00002a74 	.word	0x00002a74
    227c:	0000278c 	.word	0x0000278c
    2280:	00002a74 	.word	0x00002a74
    2284:	00002a74 	.word	0x00002a74
    2288:	00002a74 	.word	0x00002a74
    228c:	00002a74 	.word	0x00002a74
    2290:	0000283c 	.word	0x0000283c
    2294:	00002a74 	.word	0x00002a74
    2298:	00002a74 	.word	0x00002a74
    229c:	00002850 	.word	0x00002850
    22a0:	00002a74 	.word	0x00002a74
    22a4:	00002a74 	.word	0x00002a74
    22a8:	00002a74 	.word	0x00002a74
    22ac:	00002a74 	.word	0x00002a74
    22b0:	00002a74 	.word	0x00002a74
    22b4:	000028a0 	.word	0x000028a0
    22b8:	00002a74 	.word	0x00002a74
    22bc:	00002a74 	.word	0x00002a74
    22c0:	000028e8 	.word	0x000028e8
    22c4:	00002a74 	.word	0x00002a74
    22c8:	00002a74 	.word	0x00002a74
    22cc:	00002a74 	.word	0x00002a74
    22d0:	00002a74 	.word	0x00002a74
    22d4:	00002a74 	.word	0x00002a74
    22d8:	00002a74 	.word	0x00002a74
    22dc:	00002a74 	.word	0x00002a74
    22e0:	00002a74 	.word	0x00002a74
    22e4:	00002a74 	.word	0x00002a74
    22e8:	00002a74 	.word	0x00002a74
    22ec:	00002be4 	.word	0x00002be4
    22f0:	00002b8c 	.word	0x00002b8c
    22f4:	0000278c 	.word	0x0000278c
    22f8:	0000278c 	.word	0x0000278c
    22fc:	0000278c 	.word	0x0000278c
    2300:	00002bd0 	.word	0x00002bd0
    2304:	00002b8c 	.word	0x00002b8c
    2308:	00002a74 	.word	0x00002a74
    230c:	00002a74 	.word	0x00002a74
    2310:	000029cc 	.word	0x000029cc
    2314:	00002a74 	.word	0x00002a74
    2318:	000029fc 	.word	0x000029fc
    231c:	00002a30 	.word	0x00002a30
    2320:	00002c20 	.word	0x00002c20
    2324:	00002938 	.word	0x00002938
    2328:	00002a74 	.word	0x00002a74
    232c:	0000294c 	.word	0x0000294c
    2330:	00002a74 	.word	0x00002a74
    2334:	00002b04 	.word	0x00002b04
    2338:	00002a74 	.word	0x00002a74
    233c:	00002a74 	.word	0x00002a74
    2340:	00002b4c 	.word	0x00002b4c
    2344:	e59d6030 	ldr	r6, [sp, #48]	; 0x30
    2348:	e2666000 	rsb	r6, r6, #0
    234c:	e58d6030 	str	r6, [sp, #48]	; 0x30
    2350:	e58d003c 	str	r0, [sp, #60]	; 0x3c
    2354:	e59d7018 	ldr	r7, [sp, #24]
    2358:	e3877004 	orr	r7, r7, #4
    235c:	e58d7018 	str	r7, [sp, #24]
    2360:	e5d38000 	ldrb	r8, [r3]
    2364:	eaffff98 	b	21cc <_vfprintf_r+0x18c>
    2368:	e59d002c 	ldr	r0, [sp, #44]	; 0x2c
    236c:	e1a01009 	mov	r1, r9
    2370:	eb000792 	bl	41c0 <__swsetup_r>
    2374:	e3500000 	cmp	r0, #0
    2378:	01d980bc 	ldrheq	r8, [r9, #12]
    237c:	0affff51 	beq	20c8 <_vfprintf_r+0x88>
    2380:	e3e0c000 	mvn	r12, #0
    2384:	e58dc034 	str	r12, [sp, #52]	; 0x34
    2388:	e59d0034 	ldr	r0, [sp, #52]	; 0x34
    238c:	e28ddf51 	add	sp, sp, #324	; 0x144
    2390:	e28ddb01 	add	sp, sp, #1024	; 0x400
    2394:	e8bd4ff0 	pop	{r4, r5, r6, r7, r8, r9, r10, r11, lr}
    2398:	e12fff1e 	bx	lr
    239c:	e59d002c 	ldr	r0, [sp, #44]	; 0x2c
    23a0:	e59d101c 	ldr	r1, [sp, #28]
    23a4:	e28d20a4 	add	r2, sp, #164	; 0xa4
    23a8:	eb0018d7 	bl	870c <__sprint_r>
    23ac:	e3500000 	cmp	r0, #0
    23b0:	1a000007 	bne	23d4 <_vfprintf_r+0x394>
    23b4:	e28d5d05 	add	r5, sp, #320	; 0x140
    23b8:	eaffff72 	b	2188 <_vfprintf_r+0x148>
    23bc:	e59d002c 	ldr	r0, [sp, #44]	; 0x2c
    23c0:	e59d101c 	ldr	r1, [sp, #28]
    23c4:	e28d20a4 	add	r2, sp, #164	; 0xa4
    23c8:	eb0018cf 	bl	870c <__sprint_r>
    23cc:	e3500000 	cmp	r0, #0
    23d0:	0a0002d2 	beq	2f20 <_vfprintf_r+0xee0>
    23d4:	e59d901c 	ldr	r9, [sp, #28]
    23d8:	e1d930bc 	ldrh	r3, [r9, #12]
    23dc:	e3130040 	tst	r3, #64	; 0x40
    23e0:	1affffe6 	bne	2380 <_vfprintf_r+0x340>
    23e4:	eaffffe7 	b	2388 <_vfprintf_r+0x348>
    23e8:	e1d9c0be 	ldrh	r12, [r9, #14]
    23ec:	e31c0902 	tst	r12, #32768	; 0x8000
    23f0:	1affff37 	bne	20d4 <_vfprintf_r+0x94>
    23f4:	e1a02004 	mov	r2, r4
    23f8:	e59f4fb0 	ldr	r4, [pc, #4016]	; 33b0 <_vfprintf_r+0x1370>
    23fc:	e28dbd15 	add	r11, sp, #1344	; 0x540
    2400:	e3c88002 	bic	r8, r8, #2
    2404:	e18b80b4 	strh	r8, [r11, r4]
    2408:	e5997064 	ldr	r7, [r9, #100]	; 0x64
    240c:	e599601c 	ldr	r6, [r9, #28]
    2410:	e599a024 	ldr	r10, [r9, #36]	; 0x24
    2414:	e2844002 	add	r4, r4, #2
    2418:	e3a0eb01 	mov	lr, #1024	; 0x400
    241c:	e28d5d05 	add	r5, sp, #320	; 0x140
    2420:	e18bc0b4 	strh	r12, [r11, r4]
    2424:	e59d002c 	ldr	r0, [sp, #44]	; 0x2c
    2428:	e3a0c000 	mov	r12, #0
    242c:	e28d10d8 	add	r1, sp, #216	; 0xd8
    2430:	e59d303c 	ldr	r3, [sp, #60]	; 0x3c
    2434:	e58d713c 	str	r7, [sp, #316]	; 0x13c
    2438:	e58d60f4 	str	r6, [sp, #244]	; 0xf4
    243c:	e58da0fc 	str	r10, [sp, #252]	; 0xfc
    2440:	e58d50d8 	str	r5, [sp, #216]	; 0xd8
    2444:	e58d50e8 	str	r5, [sp, #232]	; 0xe8
    2448:	e58de0e0 	str	lr, [sp, #224]	; 0xe0
    244c:	e58de0ec 	str	lr, [sp, #236]	; 0xec
    2450:	e58dc0f0 	str	r12, [sp, #240]	; 0xf0
    2454:	ebfffef9 	bl	2040 <_vfprintf_r>
    2458:	e3500000 	cmp	r0, #0
    245c:	e58d0034 	str	r0, [sp, #52]	; 0x34
    2460:	ba000006 	blt	2480 <_vfprintf_r+0x440>
    2464:	e59d002c 	ldr	r0, [sp, #44]	; 0x2c
    2468:	e28d10d8 	add	r1, sp, #216	; 0xd8
    246c:	eb000e71 	bl	5e38 <_fflush_r>
    2470:	e59dc034 	ldr	r12, [sp, #52]	; 0x34
    2474:	e3500000 	cmp	r0, #0
    2478:	13e0c000 	mvnne	r12, #0
    247c:	e58dc034 	str	r12, [sp, #52]	; 0x34
    2480:	e59f3f28 	ldr	r3, [pc, #3880]	; 33b0 <_vfprintf_r+0x1370>
    2484:	e28d0d15 	add	r0, sp, #1344	; 0x540
    2488:	e19030b3 	ldrh	r3, [r0, r3]
    248c:	e3130040 	tst	r3, #64	; 0x40
    2490:	11d930bc 	ldrhne	r3, [r9, #12]
    2494:	13833040 	orrne	r3, r3, #64	; 0x40
    2498:	11c930bc 	strhne	r3, [r9, #12]
    249c:	eaffffb9 	b	2388 <_vfprintf_r+0x348>
    24a0:	e1a00006 	mov	r0, r6
    24a4:	eb000f3d 	bl	61a0 <__sinit>
    24a8:	eafffefa 	b	2098 <_vfprintf_r+0x58>
    24ac:	e59d7028 	ldr	r7, [sp, #40]	; 0x28
    24b0:	eaffff37 	b	2194 <_vfprintf_r+0x154>
    24b4:	e5cd2083 	strb	r2, [sp, #131]	; 0x83
    24b8:	e5d38000 	ldrb	r8, [r3]
    24bc:	eaffff42 	b	21cc <_vfprintf_r+0x18c>
    24c0:	e1a0c003 	mov	r12, r3
    24c4:	e4dc8001 	ldrb	r8, [r12], #1
    24c8:	e358002a 	cmp	r8, #42	; 0x2a
    24cc:	0a000717 	beq	4130 <_vfprintf_r+0x20f0>
    24d0:	e2480030 	sub	r0, r8, #48	; 0x30
    24d4:	e3500009 	cmp	r0, #9
    24d8:	81a0300c 	movhi	r3, r12
    24dc:	83a04000 	movhi	r4, #0
    24e0:	8affff3a 	bhi	21d0 <_vfprintf_r+0x190>
    24e4:	e3a04000 	mov	r4, #0
    24e8:	e4dc8001 	ldrb	r8, [r12], #1
    24ec:	e0844104 	add	r4, r4, r4, lsl #2
    24f0:	e0804084 	add	r4, r0, r4, lsl #1
    24f4:	e2480030 	sub	r0, r8, #48	; 0x30
    24f8:	e3500009 	cmp	r0, #9
    24fc:	e1a0300c 	mov	r3, r12
    2500:	9afffff8 	bls	24e8 <_vfprintf_r+0x4a8>
    2504:	e1844fc4 	orr	r4, r4, r4, asr #31
    2508:	eaffff30 	b	21d0 <_vfprintf_r+0x190>
    250c:	e59dc018 	ldr	r12, [sp, #24]
    2510:	e38cc080 	orr	r12, r12, #128	; 0x80
    2514:	e58dc018 	str	r12, [sp, #24]
    2518:	e5d38000 	ldrb	r8, [r3]
    251c:	eaffff2a 	b	21cc <_vfprintf_r+0x18c>
    2520:	e1a0c003 	mov	r12, r3
    2524:	e3a00000 	mov	r0, #0
    2528:	e2483030 	sub	r3, r8, #48	; 0x30
    252c:	e4dc8001 	ldrb	r8, [r12], #1
    2530:	e2486030 	sub	r6, r8, #48	; 0x30
    2534:	e0800100 	add	r0, r0, r0, lsl #2
    2538:	e3560009 	cmp	r6, #9
    253c:	e0830080 	add	r0, r3, r0, lsl #1
    2540:	e1a0300c 	mov	r3, r12
    2544:	9afffff7 	bls	2528 <_vfprintf_r+0x4e8>
    2548:	e58d0030 	str	r0, [sp, #48]	; 0x30
    254c:	eaffff1f 	b	21d0 <_vfprintf_r+0x190>
    2550:	e59d6018 	ldr	r6, [sp, #24]
    2554:	e3866010 	orr	r6, r6, #16
    2558:	e58d6018 	str	r6, [sp, #24]
    255c:	e59d7018 	ldr	r7, [sp, #24]
    2560:	e3170020 	tst	r7, #32
    2564:	e58d3028 	str	r3, [sp, #40]	; 0x28
    2568:	0a00018b 	beq	2b9c <_vfprintf_r+0xb5c>
    256c:	e59db03c 	ldr	r11, [sp, #60]	; 0x3c
    2570:	e28b1007 	add	r1, r11, #7
    2574:	e3c11007 	bic	r1, r1, #7
    2578:	e891000c 	ldm	r1, {r2, r3}
    257c:	e2811008 	add	r1, r1, #8
    2580:	e58d103c 	str	r1, [sp, #60]	; 0x3c
    2584:	e1a06002 	mov	r6, r2
    2588:	e1a07003 	mov	r7, r3
    258c:	e3520000 	cmp	r2, #0
    2590:	e2d30000 	sbcs	r0, r3, #0
    2594:	ba0004ae 	blt	3854 <_vfprintf_r+0x1814>
    2598:	e1961007 	orrs	r1, r6, r7
    259c:	03a02000 	moveq	r2, #0
    25a0:	13a02001 	movne	r2, #1
    25a4:	e3a03001 	mov	r3, #1
    25a8:	e3540000 	cmp	r4, #0
    25ac:	a59dc018 	ldrge	r12, [sp, #24]
    25b0:	a3ccc080 	bicge	r12, r12, #128	; 0x80
    25b4:	a58dc018 	strge	r12, [sp, #24]
    25b8:	e3540000 	cmp	r4, #0
    25bc:	13822001 	orrne	r2, r2, #1
    25c0:	e3520000 	cmp	r2, #0
    25c4:	0a0002a4 	beq	305c <_vfprintf_r+0x101c>
    25c8:	e3530001 	cmp	r3, #1
    25cc:	0a000397 	beq	3430 <_vfprintf_r+0x13f0>
    25d0:	e3530002 	cmp	r3, #2
    25d4:	e59dc05c 	ldr	r12, [sp, #92]	; 0x5c
    25d8:	0a000380 	beq	33e0 <_vfprintf_r+0x13a0>
    25dc:	e3a00007 	mov	r0, #7
    25e0:	e1a0a1a6 	lsr	r10, r6, #3
    25e4:	e18aae87 	orr	r10, r10, r7, lsl #29
    25e8:	e0062000 	and	r2, r6, r0
    25ec:	e1a031a7 	lsr	r3, r7, #3
    25f0:	e1a07003 	mov	r7, r3
    25f4:	e1a0600a 	mov	r6, r10
    25f8:	e2822030 	add	r2, r2, #48	; 0x30
    25fc:	e20220ff 	and	r2, r2, #255	; 0xff
    2600:	e196b007 	orrs	r11, r6, r7
    2604:	e1a0300c 	mov	r3, r12
    2608:	e5cc2000 	strb	r2, [r12]
    260c:	e24cc001 	sub	r12, r12, #1
    2610:	1afffff2 	bne	25e0 <_vfprintf_r+0x5a0>
    2614:	e59d6018 	ldr	r6, [sp, #24]
    2618:	e3160001 	tst	r6, #1
    261c:	e58d304c 	str	r3, [sp, #76]	; 0x4c
    2620:	1a00047f 	bne	3824 <_vfprintf_r+0x17e4>
    2624:	e59d7054 	ldr	r7, [sp, #84]	; 0x54
    2628:	e0637007 	rsb	r7, r3, r7
    262c:	e58d7038 	str	r7, [sp, #56]	; 0x38
    2630:	e59d7038 	ldr	r7, [sp, #56]	; 0x38
    2634:	e3a0b000 	mov	r11, #0
    2638:	e1570004 	cmp	r7, r4
    263c:	b1a07004 	movlt	r7, r4
    2640:	e58d7020 	str	r7, [sp, #32]
    2644:	e5dd3083 	ldrb	r3, [sp, #131]	; 0x83
    2648:	e58d4040 	str	r4, [sp, #64]	; 0x40
    264c:	e58db060 	str	r11, [sp, #96]	; 0x60
    2650:	e3530000 	cmp	r3, #0
    2654:	0a000002 	beq	2664 <_vfprintf_r+0x624>
    2658:	e59d7020 	ldr	r7, [sp, #32]
    265c:	e2877001 	add	r7, r7, #1
    2660:	e58d7020 	str	r7, [sp, #32]
    2664:	e59db018 	ldr	r11, [sp, #24]
    2668:	e21bb002 	ands	r11, r11, #2
    266c:	159dc020 	ldrne	r12, [sp, #32]
    2670:	e59d3018 	ldr	r3, [sp, #24]
    2674:	128cc002 	addne	r12, r12, #2
    2678:	158dc020 	strne	r12, [sp, #32]
    267c:	e2133084 	ands	r3, r3, #132	; 0x84
    2680:	e58db048 	str	r11, [sp, #72]	; 0x48
    2684:	e58d3050 	str	r3, [sp, #80]	; 0x50
    2688:	1a000178 	bne	2c70 <_vfprintf_r+0xc30>
    268c:	e59d4030 	ldr	r4, [sp, #48]	; 0x30
    2690:	e59d6020 	ldr	r6, [sp, #32]
    2694:	e0667004 	rsb	r7, r6, r4
    2698:	e3570000 	cmp	r7, #0
    269c:	da000173 	ble	2c70 <_vfprintf_r+0xc30>
    26a0:	e28d40a8 	add	r4, sp, #168	; 0xa8
    26a4:	e3570010 	cmp	r7, #16
    26a8:	e8940050 	ldm	r4, {r4, r6}
    26ac:	e59f9d00 	ldr	r9, [pc, #3328]	; 33b4 <_vfprintf_r+0x1374>
    26b0:	da000023 	ble	2744 <_vfprintf_r+0x704>
    26b4:	e28da0a4 	add	r10, sp, #164	; 0xa4
    26b8:	e1a03009 	mov	r3, r9
    26bc:	e58d8078 	str	r8, [sp, #120]	; 0x78
    26c0:	e1a09007 	mov	r9, r7
    26c4:	e1a0800a 	mov	r8, r10
    26c8:	e3a0b010 	mov	r11, #16
    26cc:	e59da02c 	ldr	r10, [sp, #44]	; 0x2c
    26d0:	e1a07003 	mov	r7, r3
    26d4:	ea000002 	b	26e4 <_vfprintf_r+0x6a4>
    26d8:	e2499010 	sub	r9, r9, #16
    26dc:	e3590010 	cmp	r9, #16
    26e0:	da000013 	ble	2734 <_vfprintf_r+0x6f4>
    26e4:	e2844001 	add	r4, r4, #1
    26e8:	e3540007 	cmp	r4, #7
    26ec:	e2866010 	add	r6, r6, #16
    26f0:	e8850880 	stm	r5, {r7, r11}
    26f4:	e58d60ac 	str	r6, [sp, #172]	; 0xac
    26f8:	e58d40a8 	str	r4, [sp, #168]	; 0xa8
    26fc:	d2855008 	addle	r5, r5, #8
    2700:	dafffff4 	ble	26d8 <_vfprintf_r+0x698>
    2704:	e1a0000a 	mov	r0, r10
    2708:	e59d101c 	ldr	r1, [sp, #28]
    270c:	e1a02008 	mov	r2, r8
    2710:	eb0017fd 	bl	870c <__sprint_r>
    2714:	e3500000 	cmp	r0, #0
    2718:	1affff2d 	bne	23d4 <_vfprintf_r+0x394>
    271c:	e2499010 	sub	r9, r9, #16
    2720:	e28d40a8 	add	r4, sp, #168	; 0xa8
    2724:	e3590010 	cmp	r9, #16
    2728:	e8940050 	ldm	r4, {r4, r6}
    272c:	e28d5d05 	add	r5, sp, #320	; 0x140
    2730:	caffffeb 	bgt	26e4 <_vfprintf_r+0x6a4>
    2734:	e1a03007 	mov	r3, r7
    2738:	e59d8078 	ldr	r8, [sp, #120]	; 0x78
    273c:	e1a07009 	mov	r7, r9
    2740:	e1a09003 	mov	r9, r3
    2744:	e2844001 	add	r4, r4, #1
    2748:	e0866007 	add	r6, r6, r7
    274c:	e3540007 	cmp	r4, #7
    2750:	e5859000 	str	r9, [r5]
    2754:	e5857004 	str	r7, [r5, #4]
    2758:	e58d60ac 	str	r6, [sp, #172]	; 0xac
    275c:	e58d40a8 	str	r4, [sp, #168]	; 0xa8
    2760:	d2855008 	addle	r5, r5, #8
    2764:	da000142 	ble	2c74 <_vfprintf_r+0xc34>
    2768:	e59d002c 	ldr	r0, [sp, #44]	; 0x2c
    276c:	e59d101c 	ldr	r1, [sp, #28]
    2770:	e28d20a4 	add	r2, sp, #164	; 0xa4
    2774:	eb0017e4 	bl	870c <__sprint_r>
    2778:	e3500000 	cmp	r0, #0
    277c:	1affff14 	bne	23d4 <_vfprintf_r+0x394>
    2780:	e59d60ac 	ldr	r6, [sp, #172]	; 0xac
    2784:	e28d5d05 	add	r5, sp, #320	; 0x140
    2788:	ea000139 	b	2c74 <_vfprintf_r+0xc34>
    278c:	e59d6018 	ldr	r6, [sp, #24]
    2790:	e3160008 	tst	r6, #8
    2794:	e58d3028 	str	r3, [sp, #40]	; 0x28
    2798:	0a000493 	beq	39ec <_vfprintf_r+0x19ac>
    279c:	e59d703c 	ldr	r7, [sp, #60]	; 0x3c
    27a0:	e2871007 	add	r1, r7, #7
    27a4:	e3c11007 	bic	r1, r1, #7
    27a8:	e591a000 	ldr	r10, [r1]
    27ac:	e5917004 	ldr	r7, [r1, #4]
    27b0:	e1a0b00a 	mov	r11, r10
    27b4:	e1a0c007 	mov	r12, r7
    27b8:	e2811008 	add	r1, r1, #8
    27bc:	e58db068 	str	r11, [sp, #104]	; 0x68
    27c0:	e58dc06c 	str	r12, [sp, #108]	; 0x6c
    27c4:	e58d103c 	str	r1, [sp, #60]	; 0x3c
    27c8:	e1a01007 	mov	r1, r7
    27cc:	e1a0000a 	mov	r0, r10
    27d0:	eb0016c7 	bl	82f4 <__fpclassifyd>
    27d4:	e3500001 	cmp	r0, #1
    27d8:	e1a01007 	mov	r1, r7
    27dc:	e1a0000a 	mov	r0, r10
    27e0:	1a000426 	bne	3880 <_vfprintf_r+0x1840>
    27e4:	e3a03000 	mov	r3, #0
    27e8:	e3a02000 	mov	r2, #0
    27ec:	eb002455 	bl	b948 <__aeabi_dcmplt>
    27f0:	e3500000 	cmp	r0, #0
    27f4:	13a0302d 	movne	r3, #45	; 0x2d
    27f8:	e59d7018 	ldr	r7, [sp, #24]
    27fc:	e59f2bb4 	ldr	r2, [pc, #2996]	; 33b8 <_vfprintf_r+0x1378>
    2800:	e59f1bb4 	ldr	r1, [pc, #2996]	; 33bc <_vfprintf_r+0x137c>
    2804:	05dd3083 	ldrbeq	r3, [sp, #131]	; 0x83
    2808:	15cd3083 	strbne	r3, [sp, #131]	; 0x83
    280c:	e3580047 	cmp	r8, #71	; 0x47
    2810:	e3a04003 	mov	r4, #3
    2814:	e3a06000 	mov	r6, #0
    2818:	d1a01002 	movle	r1, r2
    281c:	e3c77080 	bic	r7, r7, #128	; 0x80
    2820:	e58d4020 	str	r4, [sp, #32]
    2824:	e58d6040 	str	r6, [sp, #64]	; 0x40
    2828:	e58d104c 	str	r1, [sp, #76]	; 0x4c
    282c:	e58d7018 	str	r7, [sp, #24]
    2830:	e58d4038 	str	r4, [sp, #56]	; 0x38
    2834:	e58d6060 	str	r6, [sp, #96]	; 0x60
    2838:	eaffff84 	b	2650 <_vfprintf_r+0x610>
    283c:	e59d6018 	ldr	r6, [sp, #24]
    2840:	e3866008 	orr	r6, r6, #8
    2844:	e58d6018 	str	r6, [sp, #24]
    2848:	e5d38000 	ldrb	r8, [r3]
    284c:	eafffe5e 	b	21cc <_vfprintf_r+0x18c>
    2850:	e59d6018 	ldr	r6, [sp, #24]
    2854:	e3866010 	orr	r6, r6, #16
    2858:	e58d6018 	str	r6, [sp, #24]
    285c:	e59d7018 	ldr	r7, [sp, #24]
    2860:	e58d3028 	str	r3, [sp, #40]	; 0x28
    2864:	e2173020 	ands	r3, r7, #32
    2868:	0a000074 	beq	2a40 <_vfprintf_r+0xa00>
    286c:	e59db03c 	ldr	r11, [sp, #60]	; 0x3c
    2870:	e28b3007 	add	r3, r11, #7
    2874:	e3c33007 	bic	r3, r3, #7
    2878:	e89300c0 	ldm	r3, {r6, r7}
    287c:	e2833008 	add	r3, r3, #8
    2880:	e196c007 	orrs	r12, r6, r7
    2884:	e58d303c 	str	r3, [sp, #60]	; 0x3c
    2888:	03a02000 	moveq	r2, #0
    288c:	13a02001 	movne	r2, #1
    2890:	e3a03000 	mov	r3, #0
    2894:	e3a01000 	mov	r1, #0
    2898:	e5cd1083 	strb	r1, [sp, #131]	; 0x83
    289c:	eaffff41 	b	25a8 <_vfprintf_r+0x568>
    28a0:	e59d6018 	ldr	r6, [sp, #24]
    28a4:	e3866010 	orr	r6, r6, #16
    28a8:	e58d6018 	str	r6, [sp, #24]
    28ac:	e59d7018 	ldr	r7, [sp, #24]
    28b0:	e3170020 	tst	r7, #32
    28b4:	e58d3028 	str	r3, [sp, #40]	; 0x28
    28b8:	0a000095 	beq	2b14 <_vfprintf_r+0xad4>
    28bc:	e59db03c 	ldr	r11, [sp, #60]	; 0x3c
    28c0:	e28b3007 	add	r3, r11, #7
    28c4:	e3c33007 	bic	r3, r3, #7
    28c8:	e89300c0 	ldm	r3, {r6, r7}
    28cc:	e2833008 	add	r3, r3, #8
    28d0:	e196c007 	orrs	r12, r6, r7
    28d4:	e58d303c 	str	r3, [sp, #60]	; 0x3c
    28d8:	03a02000 	moveq	r2, #0
    28dc:	13a02001 	movne	r2, #1
    28e0:	e3a03001 	mov	r3, #1
    28e4:	eaffffea 	b	2894 <_vfprintf_r+0x854>
    28e8:	e59db018 	ldr	r11, [sp, #24]
    28ec:	e59f7acc 	ldr	r7, [pc, #2764]	; 33c0 <_vfprintf_r+0x1380>
    28f0:	e31b0020 	tst	r11, #32
    28f4:	e58d3028 	str	r3, [sp, #40]	; 0x28
    28f8:	e58d7074 	str	r7, [sp, #116]	; 0x74
    28fc:	0a000098 	beq	2b64 <_vfprintf_r+0xb24>
    2900:	e59dc03c 	ldr	r12, [sp, #60]	; 0x3c
    2904:	e28c3007 	add	r3, r12, #7
    2908:	e3c33007 	bic	r3, r3, #7
    290c:	e2836008 	add	r6, r3, #8
    2910:	e58d603c 	str	r6, [sp, #60]	; 0x3c
    2914:	e89300c0 	ldm	r3, {r6, r7}
    2918:	e59db018 	ldr	r11, [sp, #24]
    291c:	e31b0001 	tst	r11, #1
    2920:	1a0002f2 	bne	34f0 <_vfprintf_r+0x14b0>
    2924:	e196c007 	orrs	r12, r6, r7
    2928:	03a02000 	moveq	r2, #0
    292c:	13a02001 	movne	r2, #1
    2930:	e3a03002 	mov	r3, #2
    2934:	eaffffd6 	b	2894 <_vfprintf_r+0x854>
    2938:	e59d6018 	ldr	r6, [sp, #24]
    293c:	e3866020 	orr	r6, r6, #32
    2940:	e58d6018 	str	r6, [sp, #24]
    2944:	e5d38000 	ldrb	r8, [r3]
    2948:	eafffe1f 	b	21cc <_vfprintf_r+0x18c>
    294c:	e3a06000 	mov	r6, #0
    2950:	e5cd6083 	strb	r6, [sp, #131]	; 0x83
    2954:	e59d703c 	ldr	r7, [sp, #60]	; 0x3c
    2958:	e5977000 	ldr	r7, [r7]
    295c:	e59db03c 	ldr	r11, [sp, #60]	; 0x3c
    2960:	e1570006 	cmp	r7, r6
    2964:	e58d704c 	str	r7, [sp, #76]	; 0x4c
    2968:	e58d3028 	str	r3, [sp, #40]	; 0x28
    296c:	e28b7004 	add	r7, r11, #4
    2970:	0a000536 	beq	3e50 <_vfprintf_r+0x1e10>
    2974:	e3540000 	cmp	r4, #0
    2978:	e59d004c 	ldr	r0, [sp, #76]	; 0x4c
    297c:	ba000513 	blt	3dd0 <_vfprintf_r+0x1d90>
    2980:	e1a01006 	mov	r1, r6
    2984:	e1a02004 	mov	r2, r4
    2988:	eb0011f8 	bl	7170 <memchr>
    298c:	e3500000 	cmp	r0, #0
    2990:	0a000584 	beq	3fa8 <_vfprintf_r+0x1f68>
    2994:	e59dc04c 	ldr	r12, [sp, #76]	; 0x4c
    2998:	e06c0000 	rsb	r0, r12, r0
    299c:	e1500004 	cmp	r0, r4
    29a0:	e58d0038 	str	r0, [sp, #56]	; 0x38
    29a4:	e58d6040 	str	r6, [sp, #64]	; 0x40
    29a8:	da00049f 	ble	3c2c <_vfprintf_r+0x1bec>
    29ac:	e58d703c 	str	r7, [sp, #60]	; 0x3c
    29b0:	e59d7040 	ldr	r7, [sp, #64]	; 0x40
    29b4:	e1c46fc4 	bic	r6, r4, r4, asr #31
    29b8:	e58d6020 	str	r6, [sp, #32]
    29bc:	e5dd3083 	ldrb	r3, [sp, #131]	; 0x83
    29c0:	e58d4038 	str	r4, [sp, #56]	; 0x38
    29c4:	e58d7060 	str	r7, [sp, #96]	; 0x60
    29c8:	eaffff20 	b	2650 <_vfprintf_r+0x610>
    29cc:	e5d38000 	ldrb	r8, [r3]
    29d0:	e358006c 	cmp	r8, #108	; 0x6c
    29d4:	059db018 	ldreq	r11, [sp, #24]
    29d8:	159dc018 	ldrne	r12, [sp, #24]
    29dc:	e1a00003 	mov	r0, r3
    29e0:	038bb020 	orreq	r11, r11, #32
    29e4:	138cc010 	orrne	r12, r12, #16
    29e8:	02833001 	addeq	r3, r3, #1
    29ec:	058db018 	streq	r11, [sp, #24]
    29f0:	05d08001 	ldrbeq	r8, [r0, #1]
    29f4:	158dc018 	strne	r12, [sp, #24]
    29f8:	eafffdf3 	b	21cc <_vfprintf_r+0x18c>
    29fc:	e59d4018 	ldr	r4, [sp, #24]
    2a00:	e3140020 	tst	r4, #32
    2a04:	e58d3028 	str	r3, [sp, #40]	; 0x28
    2a08:	0a000403 	beq	3a1c <_vfprintf_r+0x19dc>
    2a0c:	e59d603c 	ldr	r6, [sp, #60]	; 0x3c
    2a10:	e59d2034 	ldr	r2, [sp, #52]	; 0x34
    2a14:	e5963000 	ldr	r3, [r6]
    2a18:	e1a01fc2 	asr	r1, r2, #31
    2a1c:	e2866004 	add	r6, r6, #4
    2a20:	e5832000 	str	r2, [r3]
    2a24:	e5831004 	str	r1, [r3, #4]
    2a28:	e58d603c 	str	r6, [sp, #60]	; 0x3c
    2a2c:	eafffdbb 	b	2120 <_vfprintf_r+0xe0>
    2a30:	e59d7018 	ldr	r7, [sp, #24]
    2a34:	e58d3028 	str	r3, [sp, #40]	; 0x28
    2a38:	e2173020 	ands	r3, r7, #32
    2a3c:	1affff8a 	bne	286c <_vfprintf_r+0x82c>
    2a40:	e59d6018 	ldr	r6, [sp, #24]
    2a44:	e2161010 	ands	r1, r6, #16
    2a48:	0a00041e 	beq	3ac8 <_vfprintf_r+0x1a88>
    2a4c:	e59d703c 	ldr	r7, [sp, #60]	; 0x3c
    2a50:	e59db03c 	ldr	r11, [sp, #60]	; 0x3c
    2a54:	e5972000 	ldr	r2, [r7]
    2a58:	e3a07000 	mov	r7, #0
    2a5c:	e1a06002 	mov	r6, r2
    2a60:	e28bb004 	add	r11, r11, #4
    2a64:	e0522007 	subs	r2, r2, r7
    2a68:	13a02001 	movne	r2, #1
    2a6c:	e58db03c 	str	r11, [sp, #60]	; 0x3c
    2a70:	eaffff87 	b	2894 <_vfprintf_r+0x854>
    2a74:	e3580000 	cmp	r8, #0
    2a78:	e58d3028 	str	r3, [sp, #40]	; 0x28
    2a7c:	0a000461 	beq	3c08 <_vfprintf_r+0x1bc8>
    2a80:	e3a0c001 	mov	r12, #1
    2a84:	e3a03000 	mov	r3, #0
    2a88:	e28d40b0 	add	r4, sp, #176	; 0xb0
    2a8c:	e58dc020 	str	r12, [sp, #32]
    2a90:	e5cd80b0 	strb	r8, [sp, #176]	; 0xb0
    2a94:	e5cd3083 	strb	r3, [sp, #131]	; 0x83
    2a98:	e58dc038 	str	r12, [sp, #56]	; 0x38
    2a9c:	e58d404c 	str	r4, [sp, #76]	; 0x4c
    2aa0:	e3a04000 	mov	r4, #0
    2aa4:	e58d4040 	str	r4, [sp, #64]	; 0x40
    2aa8:	e58d4060 	str	r4, [sp, #96]	; 0x60
    2aac:	eafffeec 	b	2664 <_vfprintf_r+0x624>
    2ab0:	e5dd0083 	ldrb	r0, [sp, #131]	; 0x83
    2ab4:	e3500000 	cmp	r0, #0
    2ab8:	1a00036e 	bne	3878 <_vfprintf_r+0x1838>
    2abc:	e5cd1083 	strb	r1, [sp, #131]	; 0x83
    2ac0:	e5d38000 	ldrb	r8, [r3]
    2ac4:	eafffdc0 	b	21cc <_vfprintf_r+0x18c>
    2ac8:	e59d7018 	ldr	r7, [sp, #24]
    2acc:	e3877001 	orr	r7, r7, #1
    2ad0:	e58d7018 	str	r7, [sp, #24]
    2ad4:	e5d38000 	ldrb	r8, [r3]
    2ad8:	eafffdbb 	b	21cc <_vfprintf_r+0x18c>
    2adc:	e59db03c 	ldr	r11, [sp, #60]	; 0x3c
    2ae0:	e59bb000 	ldr	r11, [r11]
    2ae4:	e59dc03c 	ldr	r12, [sp, #60]	; 0x3c
    2ae8:	e35b0000 	cmp	r11, #0
    2aec:	e58db030 	str	r11, [sp, #48]	; 0x30
    2af0:	e28c0004 	add	r0, r12, #4
    2af4:	bafffe12 	blt	2344 <_vfprintf_r+0x304>
    2af8:	e5d38000 	ldrb	r8, [r3]
    2afc:	e58d003c 	str	r0, [sp, #60]	; 0x3c
    2b00:	eafffdb1 	b	21cc <_vfprintf_r+0x18c>
    2b04:	e59d7018 	ldr	r7, [sp, #24]
    2b08:	e3170020 	tst	r7, #32
    2b0c:	e58d3028 	str	r3, [sp, #40]	; 0x28
    2b10:	1affff69 	bne	28bc <_vfprintf_r+0x87c>
    2b14:	e59d6018 	ldr	r6, [sp, #24]
    2b18:	e3160010 	tst	r6, #16
    2b1c:	0a0003e3 	beq	3ab0 <_vfprintf_r+0x1a70>
    2b20:	e59d703c 	ldr	r7, [sp, #60]	; 0x3c
    2b24:	e5972000 	ldr	r2, [r7]
    2b28:	e59db03c 	ldr	r11, [sp, #60]	; 0x3c
    2b2c:	e3a07000 	mov	r7, #0
    2b30:	e1a06002 	mov	r6, r2
    2b34:	e28bb004 	add	r11, r11, #4
    2b38:	e0522007 	subs	r2, r2, r7
    2b3c:	13a02001 	movne	r2, #1
    2b40:	e58db03c 	str	r11, [sp, #60]	; 0x3c
    2b44:	e3a03001 	mov	r3, #1
    2b48:	eaffff51 	b	2894 <_vfprintf_r+0x854>
    2b4c:	e59db018 	ldr	r11, [sp, #24]
    2b50:	e59f686c 	ldr	r6, [pc, #2156]	; 33c4 <_vfprintf_r+0x1384>
    2b54:	e31b0020 	tst	r11, #32
    2b58:	e58d3028 	str	r3, [sp, #40]	; 0x28
    2b5c:	e58d6074 	str	r6, [sp, #116]	; 0x74
    2b60:	1affff66 	bne	2900 <_vfprintf_r+0x8c0>
    2b64:	e59d7018 	ldr	r7, [sp, #24]
    2b68:	e3170010 	tst	r7, #16
    2b6c:	0a0003c4 	beq	3a84 <_vfprintf_r+0x1a44>
    2b70:	e59db03c 	ldr	r11, [sp, #60]	; 0x3c
    2b74:	e59b3000 	ldr	r3, [r11]
    2b78:	e28bb004 	add	r11, r11, #4
    2b7c:	e1a06003 	mov	r6, r3
    2b80:	e3a07000 	mov	r7, #0
    2b84:	e58db03c 	str	r11, [sp, #60]	; 0x3c
    2b88:	eaffff62 	b	2918 <_vfprintf_r+0x8d8>
    2b8c:	e59d7018 	ldr	r7, [sp, #24]
    2b90:	e3170020 	tst	r7, #32
    2b94:	e58d3028 	str	r3, [sp, #40]	; 0x28
    2b98:	1afffe73 	bne	256c <_vfprintf_r+0x52c>
    2b9c:	e59dc018 	ldr	r12, [sp, #24]
    2ba0:	e31c0010 	tst	r12, #16
    2ba4:	0a0003b0 	beq	3a6c <_vfprintf_r+0x1a2c>
    2ba8:	e59d603c 	ldr	r6, [sp, #60]	; 0x3c
    2bac:	e5963000 	ldr	r3, [r6]
    2bb0:	e59db03c 	ldr	r11, [sp, #60]	; 0x3c
    2bb4:	e1a07fc3 	asr	r7, r3, #31
    2bb8:	e28bb004 	add	r11, r11, #4
    2bbc:	e1a06003 	mov	r6, r3
    2bc0:	e1a02003 	mov	r2, r3
    2bc4:	e58db03c 	str	r11, [sp, #60]	; 0x3c
    2bc8:	e1a03007 	mov	r3, r7
    2bcc:	eafffe6e 	b	258c <_vfprintf_r+0x54c>
    2bd0:	e59d7018 	ldr	r7, [sp, #24]
    2bd4:	e3877040 	orr	r7, r7, #64	; 0x40
    2bd8:	e58d7018 	str	r7, [sp, #24]
    2bdc:	e5d38000 	ldrb	r8, [r3]
    2be0:	eafffd79 	b	21cc <_vfprintf_r+0x18c>
    2be4:	e58d3028 	str	r3, [sp, #40]	; 0x28
    2be8:	e59d303c 	ldr	r3, [sp, #60]	; 0x3c
    2bec:	e59db03c 	ldr	r11, [sp, #60]	; 0x3c
    2bf0:	e5933000 	ldr	r3, [r3]
    2bf4:	e3a07001 	mov	r7, #1
    2bf8:	e28bb004 	add	r11, r11, #4
    2bfc:	e5cd30b0 	strb	r3, [sp, #176]	; 0xb0
    2c00:	e28dc0b0 	add	r12, sp, #176	; 0xb0
    2c04:	e3a03000 	mov	r3, #0
    2c08:	e58d7020 	str	r7, [sp, #32]
    2c0c:	e58db03c 	str	r11, [sp, #60]	; 0x3c
    2c10:	e5cd3083 	strb	r3, [sp, #131]	; 0x83
    2c14:	e58d7038 	str	r7, [sp, #56]	; 0x38
    2c18:	e58dc04c 	str	r12, [sp, #76]	; 0x4c
    2c1c:	eaffff9f 	b	2aa0 <_vfprintf_r+0xa60>
    2c20:	e59dc018 	ldr	r12, [sp, #24]
    2c24:	e58d3028 	str	r3, [sp, #40]	; 0x28
    2c28:	e59d303c 	ldr	r3, [sp, #60]	; 0x3c
    2c2c:	e38cc002 	orr	r12, r12, #2
    2c30:	e5932000 	ldr	r2, [r3]
    2c34:	e58dc018 	str	r12, [sp, #24]
    2c38:	e3a07000 	mov	r7, #0
    2c3c:	e59fc780 	ldr	r12, [pc, #1920]	; 33c4 <_vfprintf_r+0x1384>
    2c40:	e283b004 	add	r11, r3, #4
    2c44:	e3a08078 	mov	r8, #120	; 0x78
    2c48:	e3a03030 	mov	r3, #48	; 0x30
    2c4c:	e1a06002 	mov	r6, r2
    2c50:	e0522007 	subs	r2, r2, r7
    2c54:	e5cd3084 	strb	r3, [sp, #132]	; 0x84
    2c58:	e58db03c 	str	r11, [sp, #60]	; 0x3c
    2c5c:	e5cd8085 	strb	r8, [sp, #133]	; 0x85
    2c60:	13a02001 	movne	r2, #1
    2c64:	e58dc074 	str	r12, [sp, #116]	; 0x74
    2c68:	e3a03002 	mov	r3, #2
    2c6c:	eaffff08 	b	2894 <_vfprintf_r+0x854>
    2c70:	e59d60ac 	ldr	r6, [sp, #172]	; 0xac
    2c74:	e5dd3083 	ldrb	r3, [sp, #131]	; 0x83
    2c78:	e3530000 	cmp	r3, #0
    2c7c:	0a00000c 	beq	2cb4 <_vfprintf_r+0xc74>
    2c80:	e59d40a8 	ldr	r4, [sp, #168]	; 0xa8
    2c84:	e28d3083 	add	r3, sp, #131	; 0x83
    2c88:	e2844001 	add	r4, r4, #1
    2c8c:	e5853000 	str	r3, [r5]
    2c90:	e2866001 	add	r6, r6, #1
    2c94:	e3540007 	cmp	r4, #7
    2c98:	e3a03001 	mov	r3, #1
    2c9c:	e5853004 	str	r3, [r5, #4]
    2ca0:	e28d7090 	add	r7, sp, #144	; 0x90
    2ca4:	e58d60ac 	str	r6, [sp, #172]	; 0xac
    2ca8:	e58d40a8 	str	r4, [sp, #168]	; 0xa8
    2cac:	d2855008 	addle	r5, r5, #8
    2cb0:	ca000179 	bgt	329c <_vfprintf_r+0x125c>
    2cb4:	e59dc048 	ldr	r12, [sp, #72]	; 0x48
    2cb8:	e35c0000 	cmp	r12, #0
    2cbc:	0a00000b 	beq	2cf0 <_vfprintf_r+0xcb0>
    2cc0:	e59d40a8 	ldr	r4, [sp, #168]	; 0xa8
    2cc4:	e28d3084 	add	r3, sp, #132	; 0x84
    2cc8:	e2844001 	add	r4, r4, #1
    2ccc:	e5853000 	str	r3, [r5]
    2cd0:	e2866002 	add	r6, r6, #2
    2cd4:	e3540007 	cmp	r4, #7
    2cd8:	e3a03002 	mov	r3, #2
    2cdc:	e5853004 	str	r3, [r5, #4]
    2ce0:	e58d60ac 	str	r6, [sp, #172]	; 0xac
    2ce4:	e58d40a8 	str	r4, [sp, #168]	; 0xa8
    2ce8:	d2855008 	addle	r5, r5, #8
    2cec:	ca000161 	bgt	3278 <_vfprintf_r+0x1238>
    2cf0:	e59d4050 	ldr	r4, [sp, #80]	; 0x50
    2cf4:	e3540080 	cmp	r4, #128	; 0x80
    2cf8:	0a0000e3 	beq	308c <_vfprintf_r+0x104c>
    2cfc:	e59d4040 	ldr	r4, [sp, #64]	; 0x40
    2d00:	e59d7038 	ldr	r7, [sp, #56]	; 0x38
    2d04:	e0679004 	rsb	r9, r7, r4
    2d08:	e3590000 	cmp	r9, #0
    2d0c:	da000031 	ble	2dd8 <_vfprintf_r+0xd98>
    2d10:	e3590010 	cmp	r9, #16
    2d14:	e59d40a8 	ldr	r4, [sp, #168]	; 0xa8
    2d18:	e59f76ac 	ldr	r7, [pc, #1708]	; 33cc <_vfprintf_r+0x138c>
    2d1c:	da00001d 	ble	2d98 <_vfprintf_r+0xd58>
    2d20:	e28da0a4 	add	r10, sp, #164	; 0xa4
    2d24:	e58d8040 	str	r8, [sp, #64]	; 0x40
    2d28:	e3a0b010 	mov	r11, #16
    2d2c:	e1a0800a 	mov	r8, r10
    2d30:	e59da02c 	ldr	r10, [sp, #44]	; 0x2c
    2d34:	ea000002 	b	2d44 <_vfprintf_r+0xd04>
    2d38:	e2499010 	sub	r9, r9, #16
    2d3c:	e3590010 	cmp	r9, #16
    2d40:	da000013 	ble	2d94 <_vfprintf_r+0xd54>
    2d44:	e2844001 	add	r4, r4, #1
    2d48:	e3540007 	cmp	r4, #7
    2d4c:	e2866010 	add	r6, r6, #16
    2d50:	e8850880 	stm	r5, {r7, r11}
    2d54:	e58d60ac 	str	r6, [sp, #172]	; 0xac
    2d58:	e58d40a8 	str	r4, [sp, #168]	; 0xa8
    2d5c:	d2855008 	addle	r5, r5, #8
    2d60:	dafffff4 	ble	2d38 <_vfprintf_r+0xcf8>
    2d64:	e1a0000a 	mov	r0, r10
    2d68:	e59d101c 	ldr	r1, [sp, #28]
    2d6c:	e1a02008 	mov	r2, r8
    2d70:	eb001665 	bl	870c <__sprint_r>
    2d74:	e3500000 	cmp	r0, #0
    2d78:	1afffd95 	bne	23d4 <_vfprintf_r+0x394>
    2d7c:	e2499010 	sub	r9, r9, #16
    2d80:	e28d40a8 	add	r4, sp, #168	; 0xa8
    2d84:	e3590010 	cmp	r9, #16
    2d88:	e8940050 	ldm	r4, {r4, r6}
    2d8c:	e28d5d05 	add	r5, sp, #320	; 0x140
    2d90:	caffffeb 	bgt	2d44 <_vfprintf_r+0xd04>
    2d94:	e59d8040 	ldr	r8, [sp, #64]	; 0x40
    2d98:	e2844001 	add	r4, r4, #1
    2d9c:	e0866009 	add	r6, r6, r9
    2da0:	e3540007 	cmp	r4, #7
    2da4:	e8850280 	stm	r5, {r7, r9}
    2da8:	e58d60ac 	str	r6, [sp, #172]	; 0xac
    2dac:	e58d40a8 	str	r4, [sp, #168]	; 0xa8
    2db0:	d2855008 	addle	r5, r5, #8
    2db4:	da000007 	ble	2dd8 <_vfprintf_r+0xd98>
    2db8:	e59d002c 	ldr	r0, [sp, #44]	; 0x2c
    2dbc:	e59d101c 	ldr	r1, [sp, #28]
    2dc0:	e28d20a4 	add	r2, sp, #164	; 0xa4
    2dc4:	eb001650 	bl	870c <__sprint_r>
    2dc8:	e3500000 	cmp	r0, #0
    2dcc:	1afffd80 	bne	23d4 <_vfprintf_r+0x394>
    2dd0:	e59d60ac 	ldr	r6, [sp, #172]	; 0xac
    2dd4:	e28d5d05 	add	r5, sp, #320	; 0x140
    2dd8:	e59d4018 	ldr	r4, [sp, #24]
    2ddc:	e3140c01 	tst	r4, #256	; 0x100
    2de0:	1a000052 	bne	2f30 <_vfprintf_r+0xef0>
    2de4:	e59d40a8 	ldr	r4, [sp, #168]	; 0xa8
    2de8:	e59d7038 	ldr	r7, [sp, #56]	; 0x38
    2dec:	e2844001 	add	r4, r4, #1
    2df0:	e59dc04c 	ldr	r12, [sp, #76]	; 0x4c
    2df4:	e0866007 	add	r6, r6, r7
    2df8:	e3540007 	cmp	r4, #7
    2dfc:	e585c000 	str	r12, [r5]
    2e00:	e5857004 	str	r7, [r5, #4]
    2e04:	e58d60ac 	str	r6, [sp, #172]	; 0xac
    2e08:	e58d40a8 	str	r4, [sp, #168]	; 0xa8
    2e0c:	ca00010c 	bgt	3244 <_vfprintf_r+0x1204>
    2e10:	e2855008 	add	r5, r5, #8
    2e14:	e59d4018 	ldr	r4, [sp, #24]
    2e18:	e3140004 	tst	r4, #4
    2e1c:	0a000036 	beq	2efc <_vfprintf_r+0xebc>
    2e20:	e59d7030 	ldr	r7, [sp, #48]	; 0x30
    2e24:	e59db020 	ldr	r11, [sp, #32]
    2e28:	e06b8007 	rsb	r8, r11, r7
    2e2c:	e3580000 	cmp	r8, #0
    2e30:	da000031 	ble	2efc <_vfprintf_r+0xebc>
    2e34:	e3580010 	cmp	r8, #16
    2e38:	e59d40a8 	ldr	r4, [sp, #168]	; 0xa8
    2e3c:	e59f9570 	ldr	r9, [pc, #1392]	; 33b4 <_vfprintf_r+0x1374>
    2e40:	da00001e 	ble	2ec0 <_vfprintf_r+0xe80>
    2e44:	e28d70a4 	add	r7, sp, #164	; 0xa4
    2e48:	e1a03007 	mov	r3, r7
    2e4c:	e3a0a010 	mov	r10, #16
    2e50:	e1a07009 	mov	r7, r9
    2e54:	e59db02c 	ldr	r11, [sp, #44]	; 0x2c
    2e58:	e1a09003 	mov	r9, r3
    2e5c:	ea000002 	b	2e6c <_vfprintf_r+0xe2c>
    2e60:	e2488010 	sub	r8, r8, #16
    2e64:	e3580010 	cmp	r8, #16
    2e68:	da000013 	ble	2ebc <_vfprintf_r+0xe7c>
    2e6c:	e2844001 	add	r4, r4, #1
    2e70:	e3540007 	cmp	r4, #7
    2e74:	e2866010 	add	r6, r6, #16
    2e78:	e8850480 	stm	r5, {r7, r10}
    2e7c:	e58d60ac 	str	r6, [sp, #172]	; 0xac
    2e80:	e58d40a8 	str	r4, [sp, #168]	; 0xa8
    2e84:	d2855008 	addle	r5, r5, #8
    2e88:	dafffff4 	ble	2e60 <_vfprintf_r+0xe20>
    2e8c:	e1a0000b 	mov	r0, r11
    2e90:	e59d101c 	ldr	r1, [sp, #28]
    2e94:	e1a02009 	mov	r2, r9
    2e98:	eb00161b 	bl	870c <__sprint_r>
    2e9c:	e3500000 	cmp	r0, #0
    2ea0:	1afffd4b 	bne	23d4 <_vfprintf_r+0x394>
    2ea4:	e2488010 	sub	r8, r8, #16
    2ea8:	e28d40a8 	add	r4, sp, #168	; 0xa8
    2eac:	e3580010 	cmp	r8, #16
    2eb0:	e8940050 	ldm	r4, {r4, r6}
    2eb4:	e28d5d05 	add	r5, sp, #320	; 0x140
    2eb8:	caffffeb 	bgt	2e6c <_vfprintf_r+0xe2c>
    2ebc:	e1a09007 	mov	r9, r7
    2ec0:	e2844001 	add	r4, r4, #1
    2ec4:	e0886006 	add	r6, r8, r6
    2ec8:	e3540007 	cmp	r4, #7
    2ecc:	e5859000 	str	r9, [r5]
    2ed0:	e5858004 	str	r8, [r5, #4]
    2ed4:	e58d60ac 	str	r6, [sp, #172]	; 0xac
    2ed8:	e58d40a8 	str	r4, [sp, #168]	; 0xa8
    2edc:	da000006 	ble	2efc <_vfprintf_r+0xebc>
    2ee0:	e59d002c 	ldr	r0, [sp, #44]	; 0x2c
    2ee4:	e59d101c 	ldr	r1, [sp, #28]
    2ee8:	e28d20a4 	add	r2, sp, #164	; 0xa4
    2eec:	eb001606 	bl	870c <__sprint_r>
    2ef0:	e3500000 	cmp	r0, #0
    2ef4:	1afffd36 	bne	23d4 <_vfprintf_r+0x394>
    2ef8:	e59d60ac 	ldr	r6, [sp, #172]	; 0xac
    2efc:	e59d4034 	ldr	r4, [sp, #52]	; 0x34
    2f00:	e59d7020 	ldr	r7, [sp, #32]
    2f04:	e59db030 	ldr	r11, [sp, #48]	; 0x30
    2f08:	e157000b 	cmp	r7, r11
    2f0c:	a0844007 	addge	r4, r4, r7
    2f10:	b084400b 	addlt	r4, r4, r11
    2f14:	e3560000 	cmp	r6, #0
    2f18:	e58d4034 	str	r4, [sp, #52]	; 0x34
    2f1c:	1afffd26 	bne	23bc <_vfprintf_r+0x37c>
    2f20:	e3a03000 	mov	r3, #0
    2f24:	e58d30a8 	str	r3, [sp, #168]	; 0xa8
    2f28:	e28d5d05 	add	r5, sp, #320	; 0x140
    2f2c:	eafffc7b 	b	2120 <_vfprintf_r+0xe0>
    2f30:	e3580065 	cmp	r8, #101	; 0x65
    2f34:	da00008c 	ble	316c <_vfprintf_r+0x112c>
    2f38:	e28d1068 	add	r1, sp, #104	; 0x68
    2f3c:	e8910003 	ldm	r1, {r0, r1}
    2f40:	e3a02000 	mov	r2, #0
    2f44:	e3a03000 	mov	r3, #0
    2f48:	eb002278 	bl	b930 <__aeabi_dcmpeq>
    2f4c:	e3500000 	cmp	r0, #0
    2f50:	0a0000db 	beq	32c4 <_vfprintf_r+0x1284>
    2f54:	e59d40a8 	ldr	r4, [sp, #168]	; 0xa8
    2f58:	e59f3468 	ldr	r3, [pc, #1128]	; 33c8 <_vfprintf_r+0x1388>
    2f5c:	e2844001 	add	r4, r4, #1
    2f60:	e5853000 	str	r3, [r5]
    2f64:	e2866001 	add	r6, r6, #1
    2f68:	e3540007 	cmp	r4, #7
    2f6c:	e3a03001 	mov	r3, #1
    2f70:	e5853004 	str	r3, [r5, #4]
    2f74:	e58d60ac 	str	r6, [sp, #172]	; 0xac
    2f78:	e58d40a8 	str	r4, [sp, #168]	; 0xa8
    2f7c:	d2855008 	addle	r5, r5, #8
    2f80:	ca0002de 	bgt	3b00 <_vfprintf_r+0x1ac0>
    2f84:	e59d3088 	ldr	r3, [sp, #136]	; 0x88
    2f88:	e59d7044 	ldr	r7, [sp, #68]	; 0x44
    2f8c:	e1530007 	cmp	r3, r7
    2f90:	ba000002 	blt	2fa0 <_vfprintf_r+0xf60>
    2f94:	e59db018 	ldr	r11, [sp, #24]
    2f98:	e31b0001 	tst	r11, #1
    2f9c:	0affff9c 	beq	2e14 <_vfprintf_r+0xdd4>
    2fa0:	e59d40a8 	ldr	r4, [sp, #168]	; 0xa8
    2fa4:	e59dc064 	ldr	r12, [sp, #100]	; 0x64
    2fa8:	e2844001 	add	r4, r4, #1
    2fac:	e59d7058 	ldr	r7, [sp, #88]	; 0x58
    2fb0:	e086600c 	add	r6, r6, r12
    2fb4:	e3540007 	cmp	r4, #7
    2fb8:	e8851080 	stm	r5, {r7, r12}
    2fbc:	e58d60ac 	str	r6, [sp, #172]	; 0xac
    2fc0:	e58d40a8 	str	r4, [sp, #168]	; 0xa8
    2fc4:	d2855008 	addle	r5, r5, #8
    2fc8:	ca000362 	bgt	3d58 <_vfprintf_r+0x1d18>
    2fcc:	e59dc044 	ldr	r12, [sp, #68]	; 0x44
    2fd0:	e24ca001 	sub	r10, r12, #1
    2fd4:	e35a0000 	cmp	r10, #0
    2fd8:	daffff8d 	ble	2e14 <_vfprintf_r+0xdd4>
    2fdc:	e35a0010 	cmp	r10, #16
    2fe0:	e59d40a8 	ldr	r4, [sp, #168]	; 0xa8
    2fe4:	e59f73e0 	ldr	r7, [pc, #992]	; 33cc <_vfprintf_r+0x138c>
    2fe8:	da00014c 	ble	3520 <_vfprintf_r+0x14e0>
    2fec:	e28d80a4 	add	r8, sp, #164	; 0xa4
    2ff0:	e1a03008 	mov	r3, r8
    2ff4:	e3a09010 	mov	r9, #16
    2ff8:	e1a08007 	mov	r8, r7
    2ffc:	e59db02c 	ldr	r11, [sp, #44]	; 0x2c
    3000:	e1a07003 	mov	r7, r3
    3004:	ea000002 	b	3014 <_vfprintf_r+0xfd4>
    3008:	e24aa010 	sub	r10, r10, #16
    300c:	e35a0010 	cmp	r10, #16
    3010:	da000141 	ble	351c <_vfprintf_r+0x14dc>
    3014:	e2844001 	add	r4, r4, #1
    3018:	e3540007 	cmp	r4, #7
    301c:	e2866010 	add	r6, r6, #16
    3020:	e8850300 	stm	r5, {r8, r9}
    3024:	e58d60ac 	str	r6, [sp, #172]	; 0xac
    3028:	e58d40a8 	str	r4, [sp, #168]	; 0xa8
    302c:	d2855008 	addle	r5, r5, #8
    3030:	dafffff4 	ble	3008 <_vfprintf_r+0xfc8>
    3034:	e1a0000b 	mov	r0, r11
    3038:	e59d101c 	ldr	r1, [sp, #28]
    303c:	e1a02007 	mov	r2, r7
    3040:	eb0015b1 	bl	870c <__sprint_r>
    3044:	e3500000 	cmp	r0, #0
    3048:	1afffce1 	bne	23d4 <_vfprintf_r+0x394>
    304c:	e28d40a8 	add	r4, sp, #168	; 0xa8
    3050:	e8940050 	ldm	r4, {r4, r6}
    3054:	e28d5d05 	add	r5, sp, #320	; 0x140
    3058:	eaffffea 	b	3008 <_vfprintf_r+0xfc8>
    305c:	e3530000 	cmp	r3, #0
    3060:	1a000080 	bne	3268 <_vfprintf_r+0x1228>
    3064:	e59d6018 	ldr	r6, [sp, #24]
    3068:	e3160001 	tst	r6, #1
    306c:	0a0000f9 	beq	3458 <_vfprintf_r+0x1418>
    3070:	e59d707c 	ldr	r7, [sp, #124]	; 0x7c
    3074:	e59db05c 	ldr	r11, [sp, #92]	; 0x5c
    3078:	e3a03030 	mov	r3, #48	; 0x30
    307c:	e5cd30d7 	strb	r3, [sp, #215]	; 0xd7
    3080:	e58d7038 	str	r7, [sp, #56]	; 0x38
    3084:	e58db04c 	str	r11, [sp, #76]	; 0x4c
    3088:	eafffd68 	b	2630 <_vfprintf_r+0x5f0>
    308c:	e59d7030 	ldr	r7, [sp, #48]	; 0x30
    3090:	e59db020 	ldr	r11, [sp, #32]
    3094:	e06b9007 	rsb	r9, r11, r7
    3098:	e3590000 	cmp	r9, #0
    309c:	daffff16 	ble	2cfc <_vfprintf_r+0xcbc>
    30a0:	e3590010 	cmp	r9, #16
    30a4:	e59d40a8 	ldr	r4, [sp, #168]	; 0xa8
    30a8:	e59f731c 	ldr	r7, [pc, #796]	; 33cc <_vfprintf_r+0x138c>
    30ac:	da00001d 	ble	3128 <_vfprintf_r+0x10e8>
    30b0:	e28da0a4 	add	r10, sp, #164	; 0xa4
    30b4:	e58d8048 	str	r8, [sp, #72]	; 0x48
    30b8:	e3a0b010 	mov	r11, #16
    30bc:	e1a0800a 	mov	r8, r10
    30c0:	e59da02c 	ldr	r10, [sp, #44]	; 0x2c
    30c4:	ea000002 	b	30d4 <_vfprintf_r+0x1094>
    30c8:	e2499010 	sub	r9, r9, #16
    30cc:	e3590010 	cmp	r9, #16
    30d0:	da000013 	ble	3124 <_vfprintf_r+0x10e4>
    30d4:	e2844001 	add	r4, r4, #1
    30d8:	e3540007 	cmp	r4, #7
    30dc:	e2866010 	add	r6, r6, #16
    30e0:	e8850880 	stm	r5, {r7, r11}
    30e4:	e58d60ac 	str	r6, [sp, #172]	; 0xac
    30e8:	e58d40a8 	str	r4, [sp, #168]	; 0xa8
    30ec:	d2855008 	addle	r5, r5, #8
    30f0:	dafffff4 	ble	30c8 <_vfprintf_r+0x1088>
    30f4:	e1a0000a 	mov	r0, r10
    30f8:	e59d101c 	ldr	r1, [sp, #28]
    30fc:	e1a02008 	mov	r2, r8
    3100:	eb001581 	bl	870c <__sprint_r>
    3104:	e3500000 	cmp	r0, #0
    3108:	1afffcb1 	bne	23d4 <_vfprintf_r+0x394>
    310c:	e2499010 	sub	r9, r9, #16
    3110:	e28d40a8 	add	r4, sp, #168	; 0xa8
    3114:	e3590010 	cmp	r9, #16
    3118:	e8940050 	ldm	r4, {r4, r6}
    311c:	e28d5d05 	add	r5, sp, #320	; 0x140
    3120:	caffffeb 	bgt	30d4 <_vfprintf_r+0x1094>
    3124:	e59d8048 	ldr	r8, [sp, #72]	; 0x48
    3128:	e2844001 	add	r4, r4, #1
    312c:	e0866009 	add	r6, r6, r9
    3130:	e3540007 	cmp	r4, #7
    3134:	e8850280 	stm	r5, {r7, r9}
    3138:	e58d60ac 	str	r6, [sp, #172]	; 0xac
    313c:	e58d40a8 	str	r4, [sp, #168]	; 0xa8
    3140:	d2855008 	addle	r5, r5, #8
    3144:	dafffeec 	ble	2cfc <_vfprintf_r+0xcbc>
    3148:	e59d002c 	ldr	r0, [sp, #44]	; 0x2c
    314c:	e59d101c 	ldr	r1, [sp, #28]
    3150:	e28d20a4 	add	r2, sp, #164	; 0xa4
    3154:	eb00156c 	bl	870c <__sprint_r>
    3158:	e3500000 	cmp	r0, #0
    315c:	1afffc9c 	bne	23d4 <_vfprintf_r+0x394>
    3160:	e59d60ac 	ldr	r6, [sp, #172]	; 0xac
    3164:	e28d5d05 	add	r5, sp, #320	; 0x140
    3168:	eafffee3 	b	2cfc <_vfprintf_r+0xcbc>
    316c:	e59d4044 	ldr	r4, [sp, #68]	; 0x44
    3170:	e3540001 	cmp	r4, #1
    3174:	e59d40a8 	ldr	r4, [sp, #168]	; 0xa8
    3178:	e2866001 	add	r6, r6, #1
    317c:	e2844001 	add	r4, r4, #1
    3180:	da000156 	ble	36e0 <_vfprintf_r+0x16a0>
    3184:	e59dc04c 	ldr	r12, [sp, #76]	; 0x4c
    3188:	e3540007 	cmp	r4, #7
    318c:	e3a03001 	mov	r3, #1
    3190:	e585c000 	str	r12, [r5]
    3194:	e5853004 	str	r3, [r5, #4]
    3198:	e58d60ac 	str	r6, [sp, #172]	; 0xac
    319c:	e58d40a8 	str	r4, [sp, #168]	; 0xa8
    31a0:	d2855008 	addle	r5, r5, #8
    31a4:	ca000160 	bgt	372c <_vfprintf_r+0x16ec>
    31a8:	e59d7064 	ldr	r7, [sp, #100]	; 0x64
    31ac:	e2844001 	add	r4, r4, #1
    31b0:	e59db058 	ldr	r11, [sp, #88]	; 0x58
    31b4:	e0866007 	add	r6, r6, r7
    31b8:	e3540007 	cmp	r4, #7
    31bc:	e585b000 	str	r11, [r5]
    31c0:	e5857004 	str	r7, [r5, #4]
    31c4:	e58d60ac 	str	r6, [sp, #172]	; 0xac
    31c8:	e58d40a8 	str	r4, [sp, #168]	; 0xa8
    31cc:	d2855008 	addle	r5, r5, #8
    31d0:	ca00015f 	bgt	3754 <_vfprintf_r+0x1714>
    31d4:	e28d1068 	add	r1, sp, #104	; 0x68
    31d8:	e8910003 	ldm	r1, {r0, r1}
    31dc:	e3a02000 	mov	r2, #0
    31e0:	e3a03000 	mov	r3, #0
    31e4:	eb0021d1 	bl	b930 <__aeabi_dcmpeq>
    31e8:	e3500000 	cmp	r0, #0
    31ec:	e59d7044 	ldr	r7, [sp, #68]	; 0x44
    31f0:	1a00009c 	bne	3468 <_vfprintf_r+0x1428>
    31f4:	e59dc04c 	ldr	r12, [sp, #76]	; 0x4c
    31f8:	e2473001 	sub	r3, r7, #1
    31fc:	e2844001 	add	r4, r4, #1
    3200:	e28c2001 	add	r2, r12, #1
    3204:	e0866003 	add	r6, r6, r3
    3208:	e3540007 	cmp	r4, #7
    320c:	e885000c 	stm	r5, {r2, r3}
    3210:	e58d60ac 	str	r6, [sp, #172]	; 0xac
    3214:	e58d40a8 	str	r4, [sp, #168]	; 0xa8
    3218:	ca00015f 	bgt	379c <_vfprintf_r+0x175c>
    321c:	e2855008 	add	r5, r5, #8
    3220:	e59dc070 	ldr	r12, [sp, #112]	; 0x70
    3224:	e2844001 	add	r4, r4, #1
    3228:	e086600c 	add	r6, r6, r12
    322c:	e28d3094 	add	r3, sp, #148	; 0x94
    3230:	e3540007 	cmp	r4, #7
    3234:	e8851008 	stm	r5, {r3, r12}
    3238:	e58d60ac 	str	r6, [sp, #172]	; 0xac
    323c:	e58d40a8 	str	r4, [sp, #168]	; 0xa8
    3240:	dafffef2 	ble	2e10 <_vfprintf_r+0xdd0>
    3244:	e59d002c 	ldr	r0, [sp, #44]	; 0x2c
    3248:	e59d101c 	ldr	r1, [sp, #28]
    324c:	e28d20a4 	add	r2, sp, #164	; 0xa4
    3250:	eb00152d 	bl	870c <__sprint_r>
    3254:	e3500000 	cmp	r0, #0
    3258:	1afffc5d 	bne	23d4 <_vfprintf_r+0x394>
    325c:	e28d5d05 	add	r5, sp, #320	; 0x140
    3260:	e59d60ac 	ldr	r6, [sp, #172]	; 0xac
    3264:	eafffeea 	b	2e14 <_vfprintf_r+0xdd4>
    3268:	e59dc054 	ldr	r12, [sp, #84]	; 0x54
    326c:	e58d2038 	str	r2, [sp, #56]	; 0x38
    3270:	e58dc04c 	str	r12, [sp, #76]	; 0x4c
    3274:	eafffced 	b	2630 <_vfprintf_r+0x5f0>
    3278:	e59d002c 	ldr	r0, [sp, #44]	; 0x2c
    327c:	e59d101c 	ldr	r1, [sp, #28]
    3280:	e28d20a4 	add	r2, sp, #164	; 0xa4
    3284:	eb001520 	bl	870c <__sprint_r>
    3288:	e3500000 	cmp	r0, #0
    328c:	1afffc50 	bne	23d4 <_vfprintf_r+0x394>
    3290:	e59d60ac 	ldr	r6, [sp, #172]	; 0xac
    3294:	e28d5d05 	add	r5, sp, #320	; 0x140
    3298:	eafffe94 	b	2cf0 <_vfprintf_r+0xcb0>
    329c:	e59d002c 	ldr	r0, [sp, #44]	; 0x2c
    32a0:	e59d101c 	ldr	r1, [sp, #28]
    32a4:	e28d20a4 	add	r2, sp, #164	; 0xa4
    32a8:	eb001517 	bl	870c <__sprint_r>
    32ac:	e3500000 	cmp	r0, #0
    32b0:	e28db0b0 	add	r11, sp, #176	; 0xb0
    32b4:	1afffc46 	bne	23d4 <_vfprintf_r+0x394>
    32b8:	e59d60ac 	ldr	r6, [sp, #172]	; 0xac
    32bc:	e28d5d05 	add	r5, sp, #320	; 0x140
    32c0:	eafffe7b 	b	2cb4 <_vfprintf_r+0xc74>
    32c4:	e59d8088 	ldr	r8, [sp, #136]	; 0x88
    32c8:	e3580000 	cmp	r8, #0
    32cc:	da000215 	ble	3b28 <_vfprintf_r+0x1ae8>
    32d0:	e59d4060 	ldr	r4, [sp, #96]	; 0x60
    32d4:	e59d7044 	ldr	r7, [sp, #68]	; 0x44
    32d8:	e59dc04c 	ldr	r12, [sp, #76]	; 0x4c
    32dc:	e1570004 	cmp	r7, r4
    32e0:	a1a07004 	movge	r7, r4
    32e4:	e59d4044 	ldr	r4, [sp, #68]	; 0x44
    32e8:	e3570000 	cmp	r7, #0
    32ec:	e08cb004 	add	r11, r12, r4
    32f0:	da000009 	ble	331c <_vfprintf_r+0x12dc>
    32f4:	e59d40a8 	ldr	r4, [sp, #168]	; 0xa8
    32f8:	e2844001 	add	r4, r4, #1
    32fc:	e0866007 	add	r6, r6, r7
    3300:	e3540007 	cmp	r4, #7
    3304:	e585c000 	str	r12, [r5]
    3308:	e5857004 	str	r7, [r5, #4]
    330c:	e58d60ac 	str	r6, [sp, #172]	; 0xac
    3310:	e58d40a8 	str	r4, [sp, #168]	; 0xa8
    3314:	d2855008 	addle	r5, r5, #8
    3318:	ca0002b5 	bgt	3df4 <_vfprintf_r+0x1db4>
    331c:	e59dc060 	ldr	r12, [sp, #96]	; 0x60
    3320:	e1c77fc7 	bic	r7, r7, r7, asr #31
    3324:	e067a00c 	rsb	r10, r7, r12
    3328:	e35a0000 	cmp	r10, #0
    332c:	da000095 	ble	3588 <_vfprintf_r+0x1548>
    3330:	e35a0010 	cmp	r10, #16
    3334:	e59d40a8 	ldr	r4, [sp, #168]	; 0xa8
    3338:	e59f708c 	ldr	r7, [pc, #140]	; 33cc <_vfprintf_r+0x138c>
    333c:	da000081 	ble	3548 <_vfprintf_r+0x1508>
    3340:	e28d80a4 	add	r8, sp, #164	; 0xa4
    3344:	e58db038 	str	r11, [sp, #56]	; 0x38
    3348:	e3a09010 	mov	r9, #16
    334c:	e1a0b00a 	mov	r11, r10
    3350:	e1a0a008 	mov	r10, r8
    3354:	e59d802c 	ldr	r8, [sp, #44]	; 0x2c
    3358:	ea000002 	b	3368 <_vfprintf_r+0x1328>
    335c:	e24bb010 	sub	r11, r11, #16
    3360:	e35b0010 	cmp	r11, #16
    3364:	da000075 	ble	3540 <_vfprintf_r+0x1500>
    3368:	e2844001 	add	r4, r4, #1
    336c:	e3540007 	cmp	r4, #7
    3370:	e2866010 	add	r6, r6, #16
    3374:	e8850280 	stm	r5, {r7, r9}
    3378:	e58d60ac 	str	r6, [sp, #172]	; 0xac
    337c:	e58d40a8 	str	r4, [sp, #168]	; 0xa8
    3380:	d2855008 	addle	r5, r5, #8
    3384:	dafffff4 	ble	335c <_vfprintf_r+0x131c>
    3388:	e1a00008 	mov	r0, r8
    338c:	e59d101c 	ldr	r1, [sp, #28]
    3390:	e1a0200a 	mov	r2, r10
    3394:	eb0014dc 	bl	870c <__sprint_r>
    3398:	e3500000 	cmp	r0, #0
    339c:	1afffc0c 	bne	23d4 <_vfprintf_r+0x394>
    33a0:	e28d40a8 	add	r4, sp, #168	; 0xa8
    33a4:	e8940050 	ldm	r4, {r4, r6}
    33a8:	e28d5d05 	add	r5, sp, #320	; 0x140
    33ac:	eaffffea 	b	335c <_vfprintf_r+0x131c>
    33b0:	fffffba4 	.word	0xfffffba4
    33b4:	0000cbb0 	.word	0x0000cbb0
    33b8:	0000cbd0 	.word	0x0000cbd0
    33bc:	0000cbd4 	.word	0x0000cbd4
    33c0:	0000cbe0 	.word	0x0000cbe0
    33c4:	0000cbf4 	.word	0x0000cbf4
    33c8:	0000cc10 	.word	0x0000cc10
    33cc:	0000cbc0 	.word	0x0000cbc0
    33d0:	0000cbd8 	.word	0x0000cbd8
    33d4:	0000cbdc 	.word	0x0000cbdc
    33d8:	0000cc08 	.word	0x0000cc08
    33dc:	66666667 	.word	0x66666667
    33e0:	e59d9074 	ldr	r9, [sp, #116]	; 0x74
    33e4:	e3a0000f 	mov	r0, #15
    33e8:	e1a0a226 	lsr	r10, r6, #4
    33ec:	e0062000 	and	r2, r6, r0
    33f0:	e18aae07 	orr	r10, r10, r7, lsl #28
    33f4:	e1a03227 	lsr	r3, r7, #4
    33f8:	e0892002 	add	r2, r9, r2
    33fc:	e1a07003 	mov	r7, r3
    3400:	e1a0600a 	mov	r6, r10
    3404:	e5d22000 	ldrb	r2, [r2]
    3408:	e196b007 	orrs	r11, r6, r7
    340c:	e1a0300c 	mov	r3, r12
    3410:	e5cc2000 	strb	r2, [r12]
    3414:	e24cc001 	sub	r12, r12, #1
    3418:	1afffff2 	bne	33e8 <_vfprintf_r+0x13a8>
    341c:	e59dc054 	ldr	r12, [sp, #84]	; 0x54
    3420:	e063c00c 	rsb	r12, r3, r12
    3424:	e58d304c 	str	r3, [sp, #76]	; 0x4c
    3428:	e58dc038 	str	r12, [sp, #56]	; 0x38
    342c:	eafffc7f 	b	2630 <_vfprintf_r+0x5f0>
    3430:	e3570000 	cmp	r7, #0
    3434:	03560009 	cmpeq	r6, #9
    3438:	8a0000e1 	bhi	37c4 <_vfprintf_r+0x1784>
    343c:	e2866030 	add	r6, r6, #48	; 0x30
    3440:	e5cd60d7 	strb	r6, [sp, #215]	; 0xd7
    3444:	e59d705c 	ldr	r7, [sp, #92]	; 0x5c
    3448:	e59d607c 	ldr	r6, [sp, #124]	; 0x7c
    344c:	e58d704c 	str	r7, [sp, #76]	; 0x4c
    3450:	e58d6038 	str	r6, [sp, #56]	; 0x38
    3454:	eafffc75 	b	2630 <_vfprintf_r+0x5f0>
    3458:	e59d6054 	ldr	r6, [sp, #84]	; 0x54
    345c:	e58d3038 	str	r3, [sp, #56]	; 0x38
    3460:	e58d604c 	str	r6, [sp, #76]	; 0x4c
    3464:	eafffc71 	b	2630 <_vfprintf_r+0x5f0>
    3468:	e247a001 	sub	r10, r7, #1
    346c:	e35a0000 	cmp	r10, #0
    3470:	daffff6a 	ble	3220 <_vfprintf_r+0x11e0>
    3474:	e35a0010 	cmp	r10, #16
    3478:	e51f70b4 	ldr	r7, [pc, #-180]	; 33cc <_vfprintf_r+0x138c>
    347c:	da0000bf 	ble	3780 <_vfprintf_r+0x1740>
    3480:	e28d80a4 	add	r8, sp, #164	; 0xa4
    3484:	e1a03008 	mov	r3, r8
    3488:	e3a09010 	mov	r9, #16
    348c:	e1a08007 	mov	r8, r7
    3490:	e59db02c 	ldr	r11, [sp, #44]	; 0x2c
    3494:	e1a07003 	mov	r7, r3
    3498:	ea000002 	b	34a8 <_vfprintf_r+0x1468>
    349c:	e24aa010 	sub	r10, r10, #16
    34a0:	e35a0010 	cmp	r10, #16
    34a4:	da0000b4 	ble	377c <_vfprintf_r+0x173c>
    34a8:	e2844001 	add	r4, r4, #1
    34ac:	e3540007 	cmp	r4, #7
    34b0:	e2866010 	add	r6, r6, #16
    34b4:	e8850300 	stm	r5, {r8, r9}
    34b8:	e58d60ac 	str	r6, [sp, #172]	; 0xac
    34bc:	e58d40a8 	str	r4, [sp, #168]	; 0xa8
    34c0:	d2855008 	addle	r5, r5, #8
    34c4:	dafffff4 	ble	349c <_vfprintf_r+0x145c>
    34c8:	e1a0000b 	mov	r0, r11
    34cc:	e59d101c 	ldr	r1, [sp, #28]
    34d0:	e1a02007 	mov	r2, r7
    34d4:	eb00148c 	bl	870c <__sprint_r>
    34d8:	e3500000 	cmp	r0, #0
    34dc:	1afffbbc 	bne	23d4 <_vfprintf_r+0x394>
    34e0:	e28d40a8 	add	r4, sp, #168	; 0xa8
    34e4:	e8940050 	ldm	r4, {r4, r6}
    34e8:	e28d5d05 	add	r5, sp, #320	; 0x140
    34ec:	eaffffea 	b	349c <_vfprintf_r+0x145c>
    34f0:	e1960007 	orrs	r0, r6, r7
    34f4:	159db018 	ldrne	r11, [sp, #24]
    34f8:	13a03030 	movne	r3, #48	; 0x30
    34fc:	138bb002 	orrne	r11, r11, #2
    3500:	15cd3084 	strbne	r3, [sp, #132]	; 0x84
    3504:	15cd8085 	strbne	r8, [sp, #133]	; 0x85
    3508:	158db018 	strne	r11, [sp, #24]
    350c:	13a02001 	movne	r2, #1
    3510:	03a02000 	moveq	r2, #0
    3514:	e3a03002 	mov	r3, #2
    3518:	eafffcdd 	b	2894 <_vfprintf_r+0x854>
    351c:	e1a07008 	mov	r7, r8
    3520:	e2844001 	add	r4, r4, #1
    3524:	e086600a 	add	r6, r6, r10
    3528:	e3540007 	cmp	r4, #7
    352c:	e8850480 	stm	r5, {r7, r10}
    3530:	e58d60ac 	str	r6, [sp, #172]	; 0xac
    3534:	e58d40a8 	str	r4, [sp, #168]	; 0xa8
    3538:	dafffe34 	ble	2e10 <_vfprintf_r+0xdd0>
    353c:	eaffff40 	b	3244 <_vfprintf_r+0x1204>
    3540:	e1a0a00b 	mov	r10, r11
    3544:	e59db038 	ldr	r11, [sp, #56]	; 0x38
    3548:	e2844001 	add	r4, r4, #1
    354c:	e086600a 	add	r6, r6, r10
    3550:	e3540007 	cmp	r4, #7
    3554:	e8850480 	stm	r5, {r7, r10}
    3558:	e58d60ac 	str	r6, [sp, #172]	; 0xac
    355c:	e58d40a8 	str	r4, [sp, #168]	; 0xa8
    3560:	d2855008 	addle	r5, r5, #8
    3564:	da000007 	ble	3588 <_vfprintf_r+0x1548>
    3568:	e59d002c 	ldr	r0, [sp, #44]	; 0x2c
    356c:	e59d101c 	ldr	r1, [sp, #28]
    3570:	e28d20a4 	add	r2, sp, #164	; 0xa4
    3574:	eb001464 	bl	870c <__sprint_r>
    3578:	e3500000 	cmp	r0, #0
    357c:	1afffb94 	bne	23d4 <_vfprintf_r+0x394>
    3580:	e59d60ac 	ldr	r6, [sp, #172]	; 0xac
    3584:	e28d5d05 	add	r5, sp, #320	; 0x140
    3588:	e59d3088 	ldr	r3, [sp, #136]	; 0x88
    358c:	e59d4044 	ldr	r4, [sp, #68]	; 0x44
    3590:	e59d704c 	ldr	r7, [sp, #76]	; 0x4c
    3594:	e59dc060 	ldr	r12, [sp, #96]	; 0x60
    3598:	e1530004 	cmp	r3, r4
    359c:	e087800c 	add	r8, r7, r12
    35a0:	ba000038 	blt	3688 <_vfprintf_r+0x1648>
    35a4:	e59d4018 	ldr	r4, [sp, #24]
    35a8:	e3140001 	tst	r4, #1
    35ac:	1a000035 	bne	3688 <_vfprintf_r+0x1648>
    35b0:	e59d4044 	ldr	r4, [sp, #68]	; 0x44
    35b4:	e068700b 	rsb	r7, r8, r11
    35b8:	e0633004 	rsb	r3, r3, r4
    35bc:	e1530007 	cmp	r3, r7
    35c0:	b1a07003 	movlt	r7, r3
    35c4:	a1a07007 	movge	r7, r7
    35c8:	e3570000 	cmp	r7, #0
    35cc:	da000009 	ble	35f8 <_vfprintf_r+0x15b8>
    35d0:	e59d40a8 	ldr	r4, [sp, #168]	; 0xa8
    35d4:	e2844001 	add	r4, r4, #1
    35d8:	e0866007 	add	r6, r6, r7
    35dc:	e3540007 	cmp	r4, #7
    35e0:	e5858000 	str	r8, [r5]
    35e4:	e5857004 	str	r7, [r5, #4]
    35e8:	e58d60ac 	str	r6, [sp, #172]	; 0xac
    35ec:	e58d40a8 	str	r4, [sp, #168]	; 0xa8
    35f0:	d2855008 	addle	r5, r5, #8
    35f4:	ca000208 	bgt	3e1c <_vfprintf_r+0x1ddc>
    35f8:	e1c77fc7 	bic	r7, r7, r7, asr #31
    35fc:	e067a003 	rsb	r10, r7, r3
    3600:	e35a0000 	cmp	r10, #0
    3604:	dafffe02 	ble	2e14 <_vfprintf_r+0xdd4>
    3608:	e35a0010 	cmp	r10, #16
    360c:	e59d40a8 	ldr	r4, [sp, #168]	; 0xa8
    3610:	e51f724c 	ldr	r7, [pc, #-588]	; 33cc <_vfprintf_r+0x138c>
    3614:	daffffc1 	ble	3520 <_vfprintf_r+0x14e0>
    3618:	e28d80a4 	add	r8, sp, #164	; 0xa4
    361c:	e1a03008 	mov	r3, r8
    3620:	e3a09010 	mov	r9, #16
    3624:	e1a08007 	mov	r8, r7
    3628:	e59db02c 	ldr	r11, [sp, #44]	; 0x2c
    362c:	e1a07003 	mov	r7, r3
    3630:	ea000002 	b	3640 <_vfprintf_r+0x1600>
    3634:	e24aa010 	sub	r10, r10, #16
    3638:	e35a0010 	cmp	r10, #16
    363c:	daffffb6 	ble	351c <_vfprintf_r+0x14dc>
    3640:	e2844001 	add	r4, r4, #1
    3644:	e3540007 	cmp	r4, #7
    3648:	e2866010 	add	r6, r6, #16
    364c:	e8850300 	stm	r5, {r8, r9}
    3650:	e58d60ac 	str	r6, [sp, #172]	; 0xac
    3654:	e58d40a8 	str	r4, [sp, #168]	; 0xa8
    3658:	d2855008 	addle	r5, r5, #8
    365c:	dafffff4 	ble	3634 <_vfprintf_r+0x15f4>
    3660:	e1a0000b 	mov	r0, r11
    3664:	e59d101c 	ldr	r1, [sp, #28]
    3668:	e1a02007 	mov	r2, r7
    366c:	eb001426 	bl	870c <__sprint_r>
    3670:	e3500000 	cmp	r0, #0
    3674:	1afffb56 	bne	23d4 <_vfprintf_r+0x394>
    3678:	e28d40a8 	add	r4, sp, #168	; 0xa8
    367c:	e8940050 	ldm	r4, {r4, r6}
    3680:	e28d5d05 	add	r5, sp, #320	; 0x140
    3684:	eaffffea 	b	3634 <_vfprintf_r+0x15f4>
    3688:	e59d40a8 	ldr	r4, [sp, #168]	; 0xa8
    368c:	e59d7064 	ldr	r7, [sp, #100]	; 0x64
    3690:	e2844001 	add	r4, r4, #1
    3694:	e59dc058 	ldr	r12, [sp, #88]	; 0x58
    3698:	e0866007 	add	r6, r6, r7
    369c:	e3540007 	cmp	r4, #7
    36a0:	e585c000 	str	r12, [r5]
    36a4:	e5857004 	str	r7, [r5, #4]
    36a8:	e58d60ac 	str	r6, [sp, #172]	; 0xac
    36ac:	e58d40a8 	str	r4, [sp, #168]	; 0xa8
    36b0:	d2855008 	addle	r5, r5, #8
    36b4:	daffffbd 	ble	35b0 <_vfprintf_r+0x1570>
    36b8:	e59d002c 	ldr	r0, [sp, #44]	; 0x2c
    36bc:	e59d101c 	ldr	r1, [sp, #28]
    36c0:	e28d20a4 	add	r2, sp, #164	; 0xa4
    36c4:	eb001410 	bl	870c <__sprint_r>
    36c8:	e3500000 	cmp	r0, #0
    36cc:	1afffb40 	bne	23d4 <_vfprintf_r+0x394>
    36d0:	e59d3088 	ldr	r3, [sp, #136]	; 0x88
    36d4:	e59d60ac 	ldr	r6, [sp, #172]	; 0xac
    36d8:	e28d5d05 	add	r5, sp, #320	; 0x140
    36dc:	eaffffb3 	b	35b0 <_vfprintf_r+0x1570>
    36e0:	e59d7018 	ldr	r7, [sp, #24]
    36e4:	e3170001 	tst	r7, #1
    36e8:	1afffea5 	bne	3184 <_vfprintf_r+0x1144>
    36ec:	e59d704c 	ldr	r7, [sp, #76]	; 0x4c
    36f0:	e3a03001 	mov	r3, #1
    36f4:	e3540007 	cmp	r4, #7
    36f8:	e5857000 	str	r7, [r5]
    36fc:	e5853004 	str	r3, [r5, #4]
    3700:	e58d60ac 	str	r6, [sp, #172]	; 0xac
    3704:	e58d40a8 	str	r4, [sp, #168]	; 0xa8
    3708:	dafffec3 	ble	321c <_vfprintf_r+0x11dc>
    370c:	e59d002c 	ldr	r0, [sp, #44]	; 0x2c
    3710:	e59d101c 	ldr	r1, [sp, #28]
    3714:	e28d20a4 	add	r2, sp, #164	; 0xa4
    3718:	eb0013fb 	bl	870c <__sprint_r>
    371c:	e3500000 	cmp	r0, #0
    3720:	e28db0b0 	add	r11, sp, #176	; 0xb0
    3724:	0a000022 	beq	37b4 <_vfprintf_r+0x1774>
    3728:	eafffb29 	b	23d4 <_vfprintf_r+0x394>
    372c:	e59d002c 	ldr	r0, [sp, #44]	; 0x2c
    3730:	e59d101c 	ldr	r1, [sp, #28]
    3734:	e28d20a4 	add	r2, sp, #164	; 0xa4
    3738:	eb0013f3 	bl	870c <__sprint_r>
    373c:	e3500000 	cmp	r0, #0
    3740:	1afffb23 	bne	23d4 <_vfprintf_r+0x394>
    3744:	e28d40a8 	add	r4, sp, #168	; 0xa8
    3748:	e8940050 	ldm	r4, {r4, r6}
    374c:	e28d5d05 	add	r5, sp, #320	; 0x140
    3750:	eafffe94 	b	31a8 <_vfprintf_r+0x1168>
    3754:	e59d002c 	ldr	r0, [sp, #44]	; 0x2c
    3758:	e59d101c 	ldr	r1, [sp, #28]
    375c:	e28d20a4 	add	r2, sp, #164	; 0xa4
    3760:	eb0013e9 	bl	870c <__sprint_r>
    3764:	e3500000 	cmp	r0, #0
    3768:	1afffb19 	bne	23d4 <_vfprintf_r+0x394>
    376c:	e28d40a8 	add	r4, sp, #168	; 0xa8
    3770:	e8940050 	ldm	r4, {r4, r6}
    3774:	e28d5d05 	add	r5, sp, #320	; 0x140
    3778:	eafffe95 	b	31d4 <_vfprintf_r+0x1194>
    377c:	e1a07008 	mov	r7, r8
    3780:	e2844001 	add	r4, r4, #1
    3784:	e086600a 	add	r6, r6, r10
    3788:	e3540007 	cmp	r4, #7
    378c:	e8850480 	stm	r5, {r7, r10}
    3790:	e58d60ac 	str	r6, [sp, #172]	; 0xac
    3794:	e58d40a8 	str	r4, [sp, #168]	; 0xa8
    3798:	dafffe9f 	ble	321c <_vfprintf_r+0x11dc>
    379c:	e59d002c 	ldr	r0, [sp, #44]	; 0x2c
    37a0:	e59d101c 	ldr	r1, [sp, #28]
    37a4:	e28d20a4 	add	r2, sp, #164	; 0xa4
    37a8:	eb0013d7 	bl	870c <__sprint_r>
    37ac:	e3500000 	cmp	r0, #0
    37b0:	1afffb07 	bne	23d4 <_vfprintf_r+0x394>
    37b4:	e28d40a8 	add	r4, sp, #168	; 0xa8
    37b8:	e28d5d05 	add	r5, sp, #320	; 0x140
    37bc:	e8940050 	ldm	r4, {r4, r6}
    37c0:	eafffe96 	b	3220 <_vfprintf_r+0x11e0>
    37c4:	e59da05c 	ldr	r10, [sp, #92]	; 0x5c
    37c8:	e1a00006 	mov	r0, r6
    37cc:	e1a01007 	mov	r1, r7
    37d0:	e3a0200a 	mov	r2, #10
    37d4:	e3a03000 	mov	r3, #0
    37d8:	eb002089 	bl	ba04 <__aeabi_uldivmod>
    37dc:	e2822030 	add	r2, r2, #48	; 0x30
    37e0:	e5ca2000 	strb	r2, [r10]
    37e4:	e1a00006 	mov	r0, r6
    37e8:	e1a01007 	mov	r1, r7
    37ec:	e3a0200a 	mov	r2, #10
    37f0:	e3a03000 	mov	r3, #0
    37f4:	eb002082 	bl	ba04 <__aeabi_uldivmod>
    37f8:	e1a06000 	mov	r6, r0
    37fc:	e1a07001 	mov	r7, r1
    3800:	e196b007 	orrs	r11, r6, r7
    3804:	e1a0900a 	mov	r9, r10
    3808:	e24aa001 	sub	r10, r10, #1
    380c:	1affffed 	bne	37c8 <_vfprintf_r+0x1788>
    3810:	e59dc054 	ldr	r12, [sp, #84]	; 0x54
    3814:	e069c00c 	rsb	r12, r9, r12
    3818:	e58d904c 	str	r9, [sp, #76]	; 0x4c
    381c:	e58dc038 	str	r12, [sp, #56]	; 0x38
    3820:	eafffb82 	b	2630 <_vfprintf_r+0x5f0>
    3824:	e3520030 	cmp	r2, #48	; 0x30
    3828:	13a02030 	movne	r2, #48	; 0x30
    382c:	059db054 	ldreq	r11, [sp, #84]	; 0x54
    3830:	15432001 	strbne	r2, [r3, #-1]
    3834:	059dc04c 	ldreq	r12, [sp, #76]	; 0x4c
    3838:	159d3054 	ldrne	r3, [sp, #84]	; 0x54
    383c:	006cb00b 	rsbeq	r11, r12, r11
    3840:	106c3003 	rsbne	r3, r12, r3
    3844:	058db038 	streq	r11, [sp, #56]	; 0x38
    3848:	158dc04c 	strne	r12, [sp, #76]	; 0x4c
    384c:	158d3038 	strne	r3, [sp, #56]	; 0x38
    3850:	eafffb76 	b	2630 <_vfprintf_r+0x5f0>
    3854:	e2766000 	rsbs	r6, r6, #0
    3858:	e2e77000 	rsc	r7, r7, #0
    385c:	e3a0302d 	mov	r3, #45	; 0x2d
    3860:	e1962007 	orrs	r2, r6, r7
    3864:	e5cd3083 	strb	r3, [sp, #131]	; 0x83
    3868:	03a02000 	moveq	r2, #0
    386c:	13a02001 	movne	r2, #1
    3870:	e3a03001 	mov	r3, #1
    3874:	eafffb4b 	b	25a8 <_vfprintf_r+0x568>
    3878:	e5d38000 	ldrb	r8, [r3]
    387c:	eafffa52 	b	21cc <_vfprintf_r+0x18c>
    3880:	eb00129b 	bl	82f4 <__fpclassifyd>
    3884:	e3500000 	cmp	r0, #0
    3888:	0a000111 	beq	3cd4 <_vfprintf_r+0x1c94>
    388c:	e3740001 	cmn	r4, #1
    3890:	e3c89020 	bic	r9, r8, #32
    3894:	03a04006 	moveq	r4, #6
    3898:	0a000003 	beq	38ac <_vfprintf_r+0x186c>
    389c:	e3590047 	cmp	r9, #71	; 0x47
    38a0:	1a000001 	bne	38ac <_vfprintf_r+0x186c>
    38a4:	e3540000 	cmp	r4, #0
    38a8:	03a04001 	moveq	r4, #1
    38ac:	e59d6018 	ldr	r6, [sp, #24]
    38b0:	e3570000 	cmp	r7, #0
    38b4:	e3866c01 	orr	r6, r6, #256	; 0x100
    38b8:	b2877102 	addlt	r7, r7, #-2147483648	; 0x80000000
    38bc:	b3a0b02d 	movlt	r11, #45	; 0x2d
    38c0:	a3a0b000 	movge	r11, #0
    38c4:	e2593046 	subs	r3, r9, #70	; 0x46
    38c8:	e58d6040 	str	r6, [sp, #64]	; 0x40
    38cc:	e2736000 	rsbs	r6, r3, #0
    38d0:	e0b66003 	adcs	r6, r6, r3
    38d4:	e3560000 	cmp	r6, #0
    38d8:	1a00016a 	bne	3e88 <_vfprintf_r+0x1e48>
    38dc:	e3590045 	cmp	r9, #69	; 0x45
    38e0:	1a0001c4 	bne	3ff8 <_vfprintf_r+0x1fb8>
    38e4:	e28d3090 	add	r3, sp, #144	; 0x90
    38e8:	e58da020 	str	r10, [sp, #32]
    38ec:	e2846001 	add	r6, r4, #1
    38f0:	e28d1088 	add	r1, sp, #136	; 0x88
    38f4:	e28d208c 	add	r2, sp, #140	; 0x8c
    38f8:	e58d7024 	str	r7, [sp, #36]	; 0x24
    38fc:	e3a00002 	mov	r0, #2
    3900:	e88d0041 	stm	sp, {r0, r6}
    3904:	e58d200c 	str	r2, [sp, #12]
    3908:	e58d3010 	str	r3, [sp, #16]
    390c:	e58d1008 	str	r1, [sp, #8]
    3910:	e59d002c 	ldr	r0, [sp, #44]	; 0x2c
    3914:	e28d3020 	add	r3, sp, #32
    3918:	e893000c 	ldm	r3, {r2, r3}
    391c:	eb000393 	bl	4770 <_dtoa_r>
    3920:	e58d004c 	str	r0, [sp, #76]	; 0x4c
    3924:	e0806006 	add	r6, r0, r6
    3928:	e1a0000a 	mov	r0, r10
    392c:	e1a01007 	mov	r1, r7
    3930:	e3a02000 	mov	r2, #0
    3934:	e3a03000 	mov	r3, #0
    3938:	eb001ffc 	bl	b930 <__aeabi_dcmpeq>
    393c:	e3500000 	cmp	r0, #0
    3940:	1a000008 	bne	3968 <_vfprintf_r+0x1928>
    3944:	e59d3090 	ldr	r3, [sp, #144]	; 0x90
    3948:	e1560003 	cmp	r6, r3
    394c:	91a06003 	movls	r6, r3
    3950:	9a000004 	bls	3968 <_vfprintf_r+0x1928>
    3954:	e3a02030 	mov	r2, #48	; 0x30
    3958:	e4c32001 	strb	r2, [r3], #1
    395c:	e1530006 	cmp	r3, r6
    3960:	e58d3090 	str	r3, [sp, #144]	; 0x90
    3964:	1afffffb 	bne	3958 <_vfprintf_r+0x1918>
    3968:	e59d704c 	ldr	r7, [sp, #76]	; 0x4c
    396c:	e3590047 	cmp	r9, #71	; 0x47
    3970:	e0676006 	rsb	r6, r7, r6
    3974:	e58d6044 	str	r6, [sp, #68]	; 0x44
    3978:	0a000163 	beq	3f0c <_vfprintf_r+0x1ecc>
    397c:	e3580065 	cmp	r8, #101	; 0x65
    3980:	da000201 	ble	418c <_vfprintf_r+0x214c>
    3984:	e3580066 	cmp	r8, #102	; 0x66
    3988:	e59d3088 	ldr	r3, [sp, #136]	; 0x88
    398c:	0a0001a5 	beq	4028 <_vfprintf_r+0x1fe8>
    3990:	e59dc044 	ldr	r12, [sp, #68]	; 0x44
    3994:	e153000c 	cmp	r3, r12
    3998:	ba000198 	blt	4000 <_vfprintf_r+0x1fc0>
    399c:	e59d4018 	ldr	r4, [sp, #24]
    39a0:	e3140001 	tst	r4, #1
    39a4:	12837001 	addne	r7, r3, #1
    39a8:	01c36fc3 	biceq	r6, r3, r3, asr #31
    39ac:	11c7cfc7 	bicne	r12, r7, r7, asr #31
    39b0:	058d6020 	streq	r6, [sp, #32]
    39b4:	058d3038 	streq	r3, [sp, #56]	; 0x38
    39b8:	158d7038 	strne	r7, [sp, #56]	; 0x38
    39bc:	158dc020 	strne	r12, [sp, #32]
    39c0:	e3a08067 	mov	r8, #103	; 0x67
    39c4:	e58d3060 	str	r3, [sp, #96]	; 0x60
    39c8:	e35b0000 	cmp	r11, #0
    39cc:	0a000128 	beq	3e74 <_vfprintf_r+0x1e34>
    39d0:	e59db040 	ldr	r11, [sp, #64]	; 0x40
    39d4:	e3a0302d 	mov	r3, #45	; 0x2d
    39d8:	e3a0c000 	mov	r12, #0
    39dc:	e5cd3083 	strb	r3, [sp, #131]	; 0x83
    39e0:	e58db018 	str	r11, [sp, #24]
    39e4:	e58dc040 	str	r12, [sp, #64]	; 0x40
    39e8:	eafffb1a 	b	2658 <_vfprintf_r+0x618>
    39ec:	e59dc03c 	ldr	r12, [sp, #60]	; 0x3c
    39f0:	e28c1007 	add	r1, r12, #7
    39f4:	e3c11007 	bic	r1, r1, #7
    39f8:	e591a000 	ldr	r10, [r1]
    39fc:	e5917004 	ldr	r7, [r1, #4]
    3a00:	e2811008 	add	r1, r1, #8
    3a04:	e58d103c 	str	r1, [sp, #60]	; 0x3c
    3a08:	e1a0000a 	mov	r0, r10
    3a0c:	e1a01007 	mov	r1, r7
    3a10:	e58d0068 	str	r0, [sp, #104]	; 0x68
    3a14:	e58d106c 	str	r1, [sp, #108]	; 0x6c
    3a18:	eafffb6a 	b	27c8 <_vfprintf_r+0x788>
    3a1c:	e59d7018 	ldr	r7, [sp, #24]
    3a20:	e3170010 	tst	r7, #16
    3a24:	1a000009 	bne	3a50 <_vfprintf_r+0x1a10>
    3a28:	e59d4018 	ldr	r4, [sp, #24]
    3a2c:	e3140040 	tst	r4, #64	; 0x40
    3a30:	0a000006 	beq	3a50 <_vfprintf_r+0x1a10>
    3a34:	e59d603c 	ldr	r6, [sp, #60]	; 0x3c
    3a38:	e59d7034 	ldr	r7, [sp, #52]	; 0x34
    3a3c:	e5963000 	ldr	r3, [r6]
    3a40:	e2866004 	add	r6, r6, #4
    3a44:	e58d603c 	str	r6, [sp, #60]	; 0x3c
    3a48:	e1c370b0 	strh	r7, [r3]
    3a4c:	eafff9b3 	b	2120 <_vfprintf_r+0xe0>
    3a50:	e59db03c 	ldr	r11, [sp, #60]	; 0x3c
    3a54:	e59dc034 	ldr	r12, [sp, #52]	; 0x34
    3a58:	e59b3000 	ldr	r3, [r11]
    3a5c:	e28bb004 	add	r11, r11, #4
    3a60:	e58db03c 	str	r11, [sp, #60]	; 0x3c
    3a64:	e583c000 	str	r12, [r3]
    3a68:	eafff9ac 	b	2120 <_vfprintf_r+0xe0>
    3a6c:	e59dc018 	ldr	r12, [sp, #24]
    3a70:	e31c0040 	tst	r12, #64	; 0x40
    3a74:	0a00008d 	beq	3cb0 <_vfprintf_r+0x1c70>
    3a78:	e59d603c 	ldr	r6, [sp, #60]	; 0x3c
    3a7c:	e1d630f0 	ldrsh	r3, [r6]
    3a80:	eafffc4a 	b	2bb0 <_vfprintf_r+0xb70>
    3a84:	e59dc018 	ldr	r12, [sp, #24]
    3a88:	e31c0040 	tst	r12, #64	; 0x40
    3a8c:	0a000080 	beq	3c94 <_vfprintf_r+0x1c54>
    3a90:	e59d603c 	ldr	r6, [sp, #60]	; 0x3c
    3a94:	e59db03c 	ldr	r11, [sp, #60]	; 0x3c
    3a98:	e1d630b0 	ldrh	r3, [r6]
    3a9c:	e28bb004 	add	r11, r11, #4
    3aa0:	e1a06003 	mov	r6, r3
    3aa4:	e3a07000 	mov	r7, #0
    3aa8:	e58db03c 	str	r11, [sp, #60]	; 0x3c
    3aac:	eafffb99 	b	2918 <_vfprintf_r+0x8d8>
    3ab0:	e59dc018 	ldr	r12, [sp, #24]
    3ab4:	e31c0040 	tst	r12, #64	; 0x40
    3ab8:	0a00006b 	beq	3c6c <_vfprintf_r+0x1c2c>
    3abc:	e59d603c 	ldr	r6, [sp, #60]	; 0x3c
    3ac0:	e1d620b0 	ldrh	r2, [r6]
    3ac4:	eafffc17 	b	2b28 <_vfprintf_r+0xae8>
    3ac8:	e59dc018 	ldr	r12, [sp, #24]
    3acc:	e21c3040 	ands	r3, r12, #64	; 0x40
    3ad0:	0a00005c 	beq	3c48 <_vfprintf_r+0x1c08>
    3ad4:	e59d603c 	ldr	r6, [sp, #60]	; 0x3c
    3ad8:	e59db03c 	ldr	r11, [sp, #60]	; 0x3c
    3adc:	e1d620b0 	ldrh	r2, [r6]
    3ae0:	e3a07000 	mov	r7, #0
    3ae4:	e1a06002 	mov	r6, r2
    3ae8:	e28bb004 	add	r11, r11, #4
    3aec:	e0522007 	subs	r2, r2, r7
    3af0:	13a02001 	movne	r2, #1
    3af4:	e58db03c 	str	r11, [sp, #60]	; 0x3c
    3af8:	e1a03001 	mov	r3, r1
    3afc:	eafffb64 	b	2894 <_vfprintf_r+0x854>
    3b00:	e59d002c 	ldr	r0, [sp, #44]	; 0x2c
    3b04:	e59d101c 	ldr	r1, [sp, #28]
    3b08:	e28d20a4 	add	r2, sp, #164	; 0xa4
    3b0c:	eb0012fe 	bl	870c <__sprint_r>
    3b10:	e3500000 	cmp	r0, #0
    3b14:	e28d40b0 	add	r4, sp, #176	; 0xb0
    3b18:	1afffa2d 	bne	23d4 <_vfprintf_r+0x394>
    3b1c:	e59d60ac 	ldr	r6, [sp, #172]	; 0xac
    3b20:	e28d5d05 	add	r5, sp, #320	; 0x140
    3b24:	eafffd16 	b	2f84 <_vfprintf_r+0xf44>
    3b28:	e59d40a8 	ldr	r4, [sp, #168]	; 0xa8
    3b2c:	e51f376c 	ldr	r3, [pc, #-1900]	; 33c8 <_vfprintf_r+0x1388>
    3b30:	e2844001 	add	r4, r4, #1
    3b34:	e5853000 	str	r3, [r5]
    3b38:	e2866001 	add	r6, r6, #1
    3b3c:	e3540007 	cmp	r4, #7
    3b40:	e3a03001 	mov	r3, #1
    3b44:	e5853004 	str	r3, [r5, #4]
    3b48:	e58d60ac 	str	r6, [sp, #172]	; 0xac
    3b4c:	e58d40a8 	str	r4, [sp, #168]	; 0xa8
    3b50:	d2855008 	addle	r5, r5, #8
    3b54:	ca000074 	bgt	3d2c <_vfprintf_r+0x1cec>
    3b58:	e3580000 	cmp	r8, #0
    3b5c:	0a00006b 	beq	3d10 <_vfprintf_r+0x1cd0>
    3b60:	e59d40a8 	ldr	r4, [sp, #168]	; 0xa8
    3b64:	e59dc064 	ldr	r12, [sp, #100]	; 0x64
    3b68:	e2844001 	add	r4, r4, #1
    3b6c:	e59d7058 	ldr	r7, [sp, #88]	; 0x58
    3b70:	e086600c 	add	r6, r6, r12
    3b74:	e3540007 	cmp	r4, #7
    3b78:	e8851080 	stm	r5, {r7, r12}
    3b7c:	e58d60ac 	str	r6, [sp, #172]	; 0xac
    3b80:	e58d40a8 	str	r4, [sp, #168]	; 0xa8
    3b84:	d2855008 	addle	r5, r5, #8
    3b88:	ca00010e 	bgt	3fc8 <_vfprintf_r+0x1f88>
    3b8c:	e2688000 	rsb	r8, r8, #0
    3b90:	e3580000 	cmp	r8, #0
    3b94:	da00008a 	ble	3dc4 <_vfprintf_r+0x1d84>
    3b98:	e3580010 	cmp	r8, #16
    3b9c:	e51f77d8 	ldr	r7, [pc, #-2008]	; 33cc <_vfprintf_r+0x138c>
    3ba0:	da000076 	ble	3d80 <_vfprintf_r+0x1d40>
    3ba4:	e3a0a010 	mov	r10, #16
    3ba8:	e28d90a4 	add	r9, sp, #164	; 0xa4
    3bac:	e59db02c 	ldr	r11, [sp, #44]	; 0x2c
    3bb0:	ea000002 	b	3bc0 <_vfprintf_r+0x1b80>
    3bb4:	e2488010 	sub	r8, r8, #16
    3bb8:	e3580010 	cmp	r8, #16
    3bbc:	da00006f 	ble	3d80 <_vfprintf_r+0x1d40>
    3bc0:	e2844001 	add	r4, r4, #1
    3bc4:	e3540007 	cmp	r4, #7
    3bc8:	e2866010 	add	r6, r6, #16
    3bcc:	e8850480 	stm	r5, {r7, r10}
    3bd0:	e58d60ac 	str	r6, [sp, #172]	; 0xac
    3bd4:	e58d40a8 	str	r4, [sp, #168]	; 0xa8
    3bd8:	d2855008 	addle	r5, r5, #8
    3bdc:	dafffff4 	ble	3bb4 <_vfprintf_r+0x1b74>
    3be0:	e1a0000b 	mov	r0, r11
    3be4:	e59d101c 	ldr	r1, [sp, #28]
    3be8:	e1a02009 	mov	r2, r9
    3bec:	eb0012c6 	bl	870c <__sprint_r>
    3bf0:	e3500000 	cmp	r0, #0
    3bf4:	1afff9f6 	bne	23d4 <_vfprintf_r+0x394>
    3bf8:	e28d40a8 	add	r4, sp, #168	; 0xa8
    3bfc:	e8940050 	ldm	r4, {r4, r6}
    3c00:	e28d5d05 	add	r5, sp, #320	; 0x140
    3c04:	eaffffea 	b	3bb4 <_vfprintf_r+0x1b74>
    3c08:	e59d30ac 	ldr	r3, [sp, #172]	; 0xac
    3c0c:	e3530000 	cmp	r3, #0
    3c10:	e59d901c 	ldr	r9, [sp, #28]
    3c14:	0afff9ef 	beq	23d8 <_vfprintf_r+0x398>
    3c18:	e59d002c 	ldr	r0, [sp, #44]	; 0x2c
    3c1c:	e1a01009 	mov	r1, r9
    3c20:	e28d20a4 	add	r2, sp, #164	; 0xa4
    3c24:	eb0012b8 	bl	870c <__sprint_r>
    3c28:	eafff9ea 	b	23d8 <_vfprintf_r+0x398>
    3c2c:	e59db038 	ldr	r11, [sp, #56]	; 0x38
    3c30:	e1cbbfcb 	bic	r11, r11, r11, asr #31
    3c34:	e58db020 	str	r11, [sp, #32]
    3c38:	e5dd3083 	ldrb	r3, [sp, #131]	; 0x83
    3c3c:	e58d703c 	str	r7, [sp, #60]	; 0x3c
    3c40:	e58d6060 	str	r6, [sp, #96]	; 0x60
    3c44:	eafffa81 	b	2650 <_vfprintf_r+0x610>
    3c48:	e59dc03c 	ldr	r12, [sp, #60]	; 0x3c
    3c4c:	e59c2000 	ldr	r2, [r12]
    3c50:	e3a07000 	mov	r7, #0
    3c54:	e1a06002 	mov	r6, r2
    3c58:	e28cc004 	add	r12, r12, #4
    3c5c:	e0522007 	subs	r2, r2, r7
    3c60:	13a02001 	movne	r2, #1
    3c64:	e58dc03c 	str	r12, [sp, #60]	; 0x3c
    3c68:	eafffb09 	b	2894 <_vfprintf_r+0x854>
    3c6c:	e59dc03c 	ldr	r12, [sp, #60]	; 0x3c
    3c70:	e59c2000 	ldr	r2, [r12]
    3c74:	e3a07000 	mov	r7, #0
    3c78:	e1a06002 	mov	r6, r2
    3c7c:	e28cc004 	add	r12, r12, #4
    3c80:	e0522007 	subs	r2, r2, r7
    3c84:	13a02001 	movne	r2, #1
    3c88:	e58dc03c 	str	r12, [sp, #60]	; 0x3c
    3c8c:	e3a03001 	mov	r3, #1
    3c90:	eafffaff 	b	2894 <_vfprintf_r+0x854>
    3c94:	e59dc03c 	ldr	r12, [sp, #60]	; 0x3c
    3c98:	e59c3000 	ldr	r3, [r12]
    3c9c:	e28cc004 	add	r12, r12, #4
    3ca0:	e1a06003 	mov	r6, r3
    3ca4:	e3a07000 	mov	r7, #0
    3ca8:	e58dc03c 	str	r12, [sp, #60]	; 0x3c
    3cac:	eafffb19 	b	2918 <_vfprintf_r+0x8d8>
    3cb0:	e59dc03c 	ldr	r12, [sp, #60]	; 0x3c
    3cb4:	e59c3000 	ldr	r3, [r12]
    3cb8:	e28cc004 	add	r12, r12, #4
    3cbc:	e1a07fc3 	asr	r7, r3, #31
    3cc0:	e1a06003 	mov	r6, r3
    3cc4:	e1a02003 	mov	r2, r3
    3cc8:	e58dc03c 	str	r12, [sp, #60]	; 0x3c
    3ccc:	e1a03007 	mov	r3, r7
    3cd0:	eafffa2d 	b	258c <_vfprintf_r+0x54c>
    3cd4:	e51f390c 	ldr	r3, [pc, #-2316]	; 33d0 <_vfprintf_r+0x1390>
    3cd8:	e59dc018 	ldr	r12, [sp, #24]
    3cdc:	e51f2910 	ldr	r2, [pc, #-2320]	; 33d4 <_vfprintf_r+0x1394>
    3ce0:	e3580047 	cmp	r8, #71	; 0x47
    3ce4:	e3a0b003 	mov	r11, #3
    3ce8:	d1a02003 	movle	r2, r3
    3cec:	e3ccc080 	bic	r12, r12, #128	; 0x80
    3cf0:	e58db020 	str	r11, [sp, #32]
    3cf4:	e58d0040 	str	r0, [sp, #64]	; 0x40
    3cf8:	e58d204c 	str	r2, [sp, #76]	; 0x4c
    3cfc:	e58dc018 	str	r12, [sp, #24]
    3d00:	e5dd3083 	ldrb	r3, [sp, #131]	; 0x83
    3d04:	e58db038 	str	r11, [sp, #56]	; 0x38
    3d08:	e58d0060 	str	r0, [sp, #96]	; 0x60
    3d0c:	eafffa4f 	b	2650 <_vfprintf_r+0x610>
    3d10:	e59d7044 	ldr	r7, [sp, #68]	; 0x44
    3d14:	e3570000 	cmp	r7, #0
    3d18:	1affff90 	bne	3b60 <_vfprintf_r+0x1b20>
    3d1c:	e59db018 	ldr	r11, [sp, #24]
    3d20:	e31b0001 	tst	r11, #1
    3d24:	0afffc3a 	beq	2e14 <_vfprintf_r+0xdd4>
    3d28:	eaffff8c 	b	3b60 <_vfprintf_r+0x1b20>
    3d2c:	e59d002c 	ldr	r0, [sp, #44]	; 0x2c
    3d30:	e59d101c 	ldr	r1, [sp, #28]
    3d34:	e28d20a4 	add	r2, sp, #164	; 0xa4
    3d38:	eb001273 	bl	870c <__sprint_r>
    3d3c:	e3500000 	cmp	r0, #0
    3d40:	e28d40b0 	add	r4, sp, #176	; 0xb0
    3d44:	1afff9a2 	bne	23d4 <_vfprintf_r+0x394>
    3d48:	e59d8088 	ldr	r8, [sp, #136]	; 0x88
    3d4c:	e59d60ac 	ldr	r6, [sp, #172]	; 0xac
    3d50:	e28d5d05 	add	r5, sp, #320	; 0x140
    3d54:	eaffff7f 	b	3b58 <_vfprintf_r+0x1b18>
    3d58:	e59d002c 	ldr	r0, [sp, #44]	; 0x2c
    3d5c:	e59d101c 	ldr	r1, [sp, #28]
    3d60:	e28d20a4 	add	r2, sp, #164	; 0xa4
    3d64:	eb001268 	bl	870c <__sprint_r>
    3d68:	e3500000 	cmp	r0, #0
    3d6c:	e28db0b0 	add	r11, sp, #176	; 0xb0
    3d70:	1afff997 	bne	23d4 <_vfprintf_r+0x394>
    3d74:	e59d60ac 	ldr	r6, [sp, #172]	; 0xac
    3d78:	e28d5d05 	add	r5, sp, #320	; 0x140
    3d7c:	eafffc92 	b	2fcc <_vfprintf_r+0xf8c>
    3d80:	e2844001 	add	r4, r4, #1
    3d84:	e0866008 	add	r6, r6, r8
    3d88:	e3540007 	cmp	r4, #7
    3d8c:	e8850180 	stm	r5, {r7, r8}
    3d90:	e58d60ac 	str	r6, [sp, #172]	; 0xac
    3d94:	e58d40a8 	str	r4, [sp, #168]	; 0xa8
    3d98:	d2855008 	addle	r5, r5, #8
    3d9c:	da000008 	ble	3dc4 <_vfprintf_r+0x1d84>
    3da0:	e59d002c 	ldr	r0, [sp, #44]	; 0x2c
    3da4:	e59d101c 	ldr	r1, [sp, #28]
    3da8:	e28d20a4 	add	r2, sp, #164	; 0xa4
    3dac:	eb001256 	bl	870c <__sprint_r>
    3db0:	e3500000 	cmp	r0, #0
    3db4:	1afff986 	bne	23d4 <_vfprintf_r+0x394>
    3db8:	e28d40a8 	add	r4, sp, #168	; 0xa8
    3dbc:	e8940050 	ldm	r4, {r4, r6}
    3dc0:	e28d5d05 	add	r5, sp, #320	; 0x140
    3dc4:	e2844001 	add	r4, r4, #1
    3dc8:	e59d7044 	ldr	r7, [sp, #68]	; 0x44
    3dcc:	eafffc07 	b	2df0 <_vfprintf_r+0xdb0>
    3dd0:	eb001235 	bl	86ac <strlen>
    3dd4:	e1c0cfc0 	bic	r12, r0, r0, asr #31
    3dd8:	e58d0038 	str	r0, [sp, #56]	; 0x38
    3ddc:	e58d6040 	str	r6, [sp, #64]	; 0x40
    3de0:	e58dc020 	str	r12, [sp, #32]
    3de4:	e5dd3083 	ldrb	r3, [sp, #131]	; 0x83
    3de8:	e58d703c 	str	r7, [sp, #60]	; 0x3c
    3dec:	e58d6060 	str	r6, [sp, #96]	; 0x60
    3df0:	eafffa16 	b	2650 <_vfprintf_r+0x610>
    3df4:	e59d002c 	ldr	r0, [sp, #44]	; 0x2c
    3df8:	e59d101c 	ldr	r1, [sp, #28]
    3dfc:	e28d20a4 	add	r2, sp, #164	; 0xa4
    3e00:	eb001241 	bl	870c <__sprint_r>
    3e04:	e3500000 	cmp	r0, #0
    3e08:	e28d60b0 	add	r6, sp, #176	; 0xb0
    3e0c:	1afff970 	bne	23d4 <_vfprintf_r+0x394>
    3e10:	e59d60ac 	ldr	r6, [sp, #172]	; 0xac
    3e14:	e28d5d05 	add	r5, sp, #320	; 0x140
    3e18:	eafffd3f 	b	331c <_vfprintf_r+0x12dc>
    3e1c:	e59d002c 	ldr	r0, [sp, #44]	; 0x2c
    3e20:	e59d101c 	ldr	r1, [sp, #28]
    3e24:	e28d20a4 	add	r2, sp, #164	; 0xa4
    3e28:	eb001237 	bl	870c <__sprint_r>
    3e2c:	e3500000 	cmp	r0, #0
    3e30:	e28d60b0 	add	r6, sp, #176	; 0xb0
    3e34:	1afff966 	bne	23d4 <_vfprintf_r+0x394>
    3e38:	e59d3088 	ldr	r3, [sp, #136]	; 0x88
    3e3c:	e59db044 	ldr	r11, [sp, #68]	; 0x44
    3e40:	e59d60ac 	ldr	r6, [sp, #172]	; 0xac
    3e44:	e063300b 	rsb	r3, r3, r11
    3e48:	e28d5d05 	add	r5, sp, #320	; 0x140
    3e4c:	eafffde9 	b	35f8 <_vfprintf_r+0x15b8>
    3e50:	e3540006 	cmp	r4, #6
    3e54:	23a04006 	movcs	r4, #6
    3e58:	e1c4cfc4 	bic	r12, r4, r4, asr #31
    3e5c:	e58d4038 	str	r4, [sp, #56]	; 0x38
    3e60:	e51f4a90 	ldr	r4, [pc, #-2704]	; 33d8 <_vfprintf_r+0x1398>
    3e64:	e58dc020 	str	r12, [sp, #32]
    3e68:	e58d703c 	str	r7, [sp, #60]	; 0x3c
    3e6c:	e58d404c 	str	r4, [sp, #76]	; 0x4c
    3e70:	eafffb0a 	b	2aa0 <_vfprintf_r+0xa60>
    3e74:	e59d6040 	ldr	r6, [sp, #64]	; 0x40
    3e78:	e5dd3083 	ldrb	r3, [sp, #131]	; 0x83
    3e7c:	e58d6018 	str	r6, [sp, #24]
    3e80:	e58db040 	str	r11, [sp, #64]	; 0x40
    3e84:	eafff9f1 	b	2650 <_vfprintf_r+0x610>
    3e88:	e3a02003 	mov	r2, #3
    3e8c:	e28d3090 	add	r3, sp, #144	; 0x90
    3e90:	e58da020 	str	r10, [sp, #32]
    3e94:	e28d0088 	add	r0, sp, #136	; 0x88
    3e98:	e28d108c 	add	r1, sp, #140	; 0x8c
    3e9c:	e58d7024 	str	r7, [sp, #36]	; 0x24
    3ea0:	e88d0014 	stm	sp, {r2, r4}
    3ea4:	e58d0008 	str	r0, [sp, #8]
    3ea8:	e58d3010 	str	r3, [sp, #16]
    3eac:	e58d100c 	str	r1, [sp, #12]
    3eb0:	e59d002c 	ldr	r0, [sp, #44]	; 0x2c
    3eb4:	e28d3020 	add	r3, sp, #32
    3eb8:	e893000c 	ldm	r3, {r2, r3}
    3ebc:	eb00022b 	bl	4770 <_dtoa_r>
    3ec0:	e3590047 	cmp	r9, #71	; 0x47
    3ec4:	e58d004c 	str	r0, [sp, #76]	; 0x4c
    3ec8:	1a000002 	bne	3ed8 <_vfprintf_r+0x1e98>
    3ecc:	e59dc018 	ldr	r12, [sp, #24]
    3ed0:	e31c0001 	tst	r12, #1
    3ed4:	0a000009 	beq	3f00 <_vfprintf_r+0x1ec0>
    3ed8:	e59dc04c 	ldr	r12, [sp, #76]	; 0x4c
    3edc:	e3560000 	cmp	r6, #0
    3ee0:	e08c6004 	add	r6, r12, r4
    3ee4:	0afffe8f 	beq	3928 <_vfprintf_r+0x18e8>
    3ee8:	e5dc3000 	ldrb	r3, [r12]
    3eec:	e3530030 	cmp	r3, #48	; 0x30
    3ef0:	0a000075 	beq	40cc <_vfprintf_r+0x208c>
    3ef4:	e59d3088 	ldr	r3, [sp, #136]	; 0x88
    3ef8:	e0866003 	add	r6, r6, r3
    3efc:	eafffe89 	b	3928 <_vfprintf_r+0x18e8>
    3f00:	e59d3090 	ldr	r3, [sp, #144]	; 0x90
    3f04:	e0603003 	rsb	r3, r0, r3
    3f08:	e58d3044 	str	r3, [sp, #68]	; 0x44
    3f0c:	e59d0088 	ldr	r0, [sp, #136]	; 0x88
    3f10:	e3700003 	cmn	r0, #3
    3f14:	e1a03000 	mov	r3, r0
    3f18:	ba000001 	blt	3f24 <_vfprintf_r+0x1ee4>
    3f1c:	e1540000 	cmp	r4, r0
    3f20:	aafffe9a 	bge	3990 <_vfprintf_r+0x1950>
    3f24:	e2488002 	sub	r8, r8, #2
    3f28:	e2400001 	sub	r0, r0, #1
    3f2c:	e3500000 	cmp	r0, #0
    3f30:	e58d0088 	str	r0, [sp, #136]	; 0x88
    3f34:	b2600000 	rsblt	r0, r0, #0
    3f38:	b3a0302d 	movlt	r3, #45	; 0x2d
    3f3c:	a3a0302b 	movge	r3, #43	; 0x2b
    3f40:	e3500009 	cmp	r0, #9
    3f44:	e5cd8094 	strb	r8, [sp, #148]	; 0x94
    3f48:	e5cd3095 	strb	r3, [sp, #149]	; 0x95
    3f4c:	ca000040 	bgt	4054 <_vfprintf_r+0x2014>
    3f50:	e2800030 	add	r0, r0, #48	; 0x30
    3f54:	e3a02030 	mov	r2, #48	; 0x30
    3f58:	e28d30a0 	add	r3, sp, #160	; 0xa0
    3f5c:	e5cd0097 	strb	r0, [sp, #151]	; 0x97
    3f60:	e5cd2096 	strb	r2, [sp, #150]	; 0x96
    3f64:	e2432008 	sub	r2, r3, #8
    3f68:	e59d6044 	ldr	r6, [sp, #68]	; 0x44
    3f6c:	e243300c 	sub	r3, r3, #12
    3f70:	e0633002 	rsb	r3, r3, r2
    3f74:	e0867003 	add	r7, r6, r3
    3f78:	e3560001 	cmp	r6, #1
    3f7c:	e58d3070 	str	r3, [sp, #112]	; 0x70
    3f80:	e58d7038 	str	r7, [sp, #56]	; 0x38
    3f84:	da000072 	ble	4154 <_vfprintf_r+0x2114>
    3f88:	e59d6038 	ldr	r6, [sp, #56]	; 0x38
    3f8c:	e2866001 	add	r6, r6, #1
    3f90:	e1c67fc6 	bic	r7, r6, r6, asr #31
    3f94:	e3a0c000 	mov	r12, #0
    3f98:	e58d6038 	str	r6, [sp, #56]	; 0x38
    3f9c:	e58d7020 	str	r7, [sp, #32]
    3fa0:	e58dc060 	str	r12, [sp, #96]	; 0x60
    3fa4:	eafffe87 	b	39c8 <_vfprintf_r+0x1988>
    3fa8:	e1c46fc4 	bic	r6, r4, r4, asr #31
    3fac:	e58d0040 	str	r0, [sp, #64]	; 0x40
    3fb0:	e58d6020 	str	r6, [sp, #32]
    3fb4:	e5dd3083 	ldrb	r3, [sp, #131]	; 0x83
    3fb8:	e58d703c 	str	r7, [sp, #60]	; 0x3c
    3fbc:	e58d4038 	str	r4, [sp, #56]	; 0x38
    3fc0:	e58d0060 	str	r0, [sp, #96]	; 0x60
    3fc4:	eafff9a1 	b	2650 <_vfprintf_r+0x610>
    3fc8:	e59d002c 	ldr	r0, [sp, #44]	; 0x2c
    3fcc:	e59d101c 	ldr	r1, [sp, #28]
    3fd0:	e28d20a4 	add	r2, sp, #164	; 0xa4
    3fd4:	eb0011cc 	bl	870c <__sprint_r>
    3fd8:	e3500000 	cmp	r0, #0
    3fdc:	e28db0b0 	add	r11, sp, #176	; 0xb0
    3fe0:	1afff8fb 	bne	23d4 <_vfprintf_r+0x394>
    3fe4:	e28d40a8 	add	r4, sp, #168	; 0xa8
    3fe8:	e59d8088 	ldr	r8, [sp, #136]	; 0x88
    3fec:	e8940050 	ldm	r4, {r4, r6}
    3ff0:	e28d5d05 	add	r5, sp, #320	; 0x140
    3ff4:	eafffee4 	b	3b8c <_vfprintf_r+0x1b4c>
    3ff8:	e3a02002 	mov	r2, #2
    3ffc:	eaffffa2 	b	3e8c <_vfprintf_r+0x1e4c>
    4000:	e3530000 	cmp	r3, #0
    4004:	e59d4044 	ldr	r4, [sp, #68]	; 0x44
    4008:	d2632002 	rsble	r2, r3, #2
    400c:	c3a02001 	movgt	r2, #1
    4010:	e0822004 	add	r2, r2, r4
    4014:	e1c26fc2 	bic	r6, r2, r2, asr #31
    4018:	e58d2038 	str	r2, [sp, #56]	; 0x38
    401c:	e58d6020 	str	r6, [sp, #32]
    4020:	e3a08067 	mov	r8, #103	; 0x67
    4024:	eafffe66 	b	39c4 <_vfprintf_r+0x1984>
    4028:	e3530000 	cmp	r3, #0
    402c:	da000036 	ble	410c <_vfprintf_r+0x20cc>
    4030:	e3540000 	cmp	r4, #0
    4034:	1a00002e 	bne	40f4 <_vfprintf_r+0x20b4>
    4038:	e59d6018 	ldr	r6, [sp, #24]
    403c:	e3160001 	tst	r6, #1
    4040:	1a00002b 	bne	40f4 <_vfprintf_r+0x20b4>
    4044:	e1c37fc3 	bic	r7, r3, r3, asr #31
    4048:	e58d7020 	str	r7, [sp, #32]
    404c:	e58d3038 	str	r3, [sp, #56]	; 0x38
    4050:	eafffe5b 	b	39c4 <_vfprintf_r+0x1984>
    4054:	e28d30a0 	add	r3, sp, #160	; 0xa0
    4058:	e2832002 	add	r2, r3, #2
    405c:	e51f1c88 	ldr	r1, [pc, #-3208]	; 33dc <_vfprintf_r+0x139c>
    4060:	e0cc4091 	smull	r4, r12, r1, r0
    4064:	e1a01fc0 	asr	r1, r0, #31
    4068:	e061114c 	rsb	r1, r1, r12, asr #2
    406c:	e081c101 	add	r12, r1, r1, lsl #2
    4070:	e040c08c 	sub	r12, r0, r12, lsl #1
    4074:	e1a00001 	mov	r0, r1
    4078:	e3500009 	cmp	r0, #9
    407c:	e1a01002 	mov	r1, r2
    4080:	e28c2030 	add	r2, r12, #48	; 0x30
    4084:	e5c12000 	strb	r2, [r1]
    4088:	e2412001 	sub	r2, r1, #1
    408c:	cafffff2 	bgt	405c <_vfprintf_r+0x201c>
    4090:	e2834003 	add	r4, r3, #3
    4094:	e2800030 	add	r0, r0, #48	; 0x30
    4098:	e1540002 	cmp	r4, r2
    409c:	e5410001 	strb	r0, [r1, #-1]
    40a0:	9a000037 	bls	4184 <_vfprintf_r+0x2144>
    40a4:	e243c00b 	sub	r12, r3, #11
    40a8:	e1a02001 	mov	r2, r1
    40ac:	ea000000 	b	40b4 <_vfprintf_r+0x2074>
    40b0:	e4d20001 	ldrb	r0, [r2], #1
    40b4:	e1520004 	cmp	r2, r4
    40b8:	e5ec0001 	strb	r0, [r12, #1]!
    40bc:	1afffffb 	bne	40b0 <_vfprintf_r+0x2070>
    40c0:	e0612083 	rsb	r2, r1, r3, lsl #1
    40c4:	e2422006 	sub	r2, r2, #6
    40c8:	eaffffa6 	b	3f68 <_vfprintf_r+0x1f28>
    40cc:	e3a03000 	mov	r3, #0
    40d0:	e1a0000a 	mov	r0, r10
    40d4:	e1a01007 	mov	r1, r7
    40d8:	e3a02000 	mov	r2, #0
    40dc:	eb001e13 	bl	b930 <__aeabi_dcmpeq>
    40e0:	e3500000 	cmp	r0, #0
    40e4:	02643001 	rsbeq	r3, r4, #1
    40e8:	058d3088 	streq	r3, [sp, #136]	; 0x88
    40ec:	0affff81 	beq	3ef8 <_vfprintf_r+0x1eb8>
    40f0:	eaffff7f 	b	3ef4 <_vfprintf_r+0x1eb4>
    40f4:	e2844001 	add	r4, r4, #1
    40f8:	e0834004 	add	r4, r3, r4
    40fc:	e1c4cfc4 	bic	r12, r4, r4, asr #31
    4100:	e58d4038 	str	r4, [sp, #56]	; 0x38
    4104:	e58dc020 	str	r12, [sp, #32]
    4108:	eafffe2d 	b	39c4 <_vfprintf_r+0x1984>
    410c:	e3540000 	cmp	r4, #0
    4110:	1a000016 	bne	4170 <_vfprintf_r+0x2130>
    4114:	e59d6018 	ldr	r6, [sp, #24]
    4118:	e3160001 	tst	r6, #1
    411c:	1a000013 	bne	4170 <_vfprintf_r+0x2130>
    4120:	e3a07001 	mov	r7, #1
    4124:	e58d7020 	str	r7, [sp, #32]
    4128:	e58d7038 	str	r7, [sp, #56]	; 0x38
    412c:	eafffe24 	b	39c4 <_vfprintf_r+0x1984>
    4130:	e59db03c 	ldr	r11, [sp, #60]	; 0x3c
    4134:	e59b4000 	ldr	r4, [r11]
    4138:	e28b0004 	add	r0, r11, #4
    413c:	e3540000 	cmp	r4, #0
    4140:	e5d38001 	ldrb	r8, [r3, #1]
    4144:	e58d003c 	str	r0, [sp, #60]	; 0x3c
    4148:	e1a0300c 	mov	r3, r12
    414c:	b3e04000 	mvnlt	r4, #0
    4150:	eafff81d 	b	21cc <_vfprintf_r+0x18c>
    4154:	e59dc018 	ldr	r12, [sp, #24]
    4158:	e21c3001 	ands	r3, r12, #1
    415c:	1affff89 	bne	3f88 <_vfprintf_r+0x1f48>
    4160:	e1c74fc7 	bic	r4, r7, r7, asr #31
    4164:	e58d4020 	str	r4, [sp, #32]
    4168:	e58d3060 	str	r3, [sp, #96]	; 0x60
    416c:	eafffe15 	b	39c8 <_vfprintf_r+0x1988>
    4170:	e2844002 	add	r4, r4, #2
    4174:	e1c47fc4 	bic	r7, r4, r4, asr #31
    4178:	e58d4038 	str	r4, [sp, #56]	; 0x38
    417c:	e58d7020 	str	r7, [sp, #32]
    4180:	eafffe0f 	b	39c4 <_vfprintf_r+0x1984>
    4184:	e243200a 	sub	r2, r3, #10
    4188:	eaffff76 	b	3f68 <_vfprintf_r+0x1f28>
    418c:	e59d0088 	ldr	r0, [sp, #136]	; 0x88
    4190:	eaffff64 	b	3f28 <_vfprintf_r+0x1ee8>

00004194 <vfprintf>:
    4194:	e52d4004 	push	{r4}		; (str r4, [sp, #-4]!)
    4198:	e1a03002 	mov	r3, r2
    419c:	e59f2018 	ldr	r2, [pc, #24]	; 41bc <vfprintf+0x28>
    41a0:	e1a04000 	mov	r4, r0
    41a4:	e1a0c001 	mov	r12, r1
    41a8:	e5920000 	ldr	r0, [r2]
    41ac:	e1a01004 	mov	r1, r4
    41b0:	e1a0200c 	mov	r2, r12
    41b4:	e8bd0010 	ldmfd	sp!, {r4}
    41b8:	eafff7a0 	b	2040 <_vfprintf_r>
    41bc:	000915c8 	.word	0x000915c8

000041c0 <__swsetup_r>:
    41c0:	e92d4038 	push	{r3, r4, r5, lr}
    41c4:	e59f3128 	ldr	r3, [pc, #296]	; 42f4 <__swsetup_r+0x134>
    41c8:	e5933000 	ldr	r3, [r3]
    41cc:	e3530000 	cmp	r3, #0
    41d0:	e1a05000 	mov	r5, r0
    41d4:	e1a04001 	mov	r4, r1
    41d8:	0a000002 	beq	41e8 <__swsetup_r+0x28>
    41dc:	e5932038 	ldr	r2, [r3, #56]	; 0x38
    41e0:	e3520000 	cmp	r2, #0
    41e4:	0a00002e 	beq	42a4 <__swsetup_r+0xe4>
    41e8:	e1d430bc 	ldrh	r3, [r4, #12]
    41ec:	e3130008 	tst	r3, #8
    41f0:	e1a02003 	mov	r2, r3
    41f4:	0a00000c 	beq	422c <__swsetup_r+0x6c>
    41f8:	e5942010 	ldr	r2, [r4, #16]
    41fc:	e3520000 	cmp	r2, #0
    4200:	0a000012 	beq	4250 <__swsetup_r+0x90>
    4204:	e2131001 	ands	r1, r3, #1
    4208:	1a000019 	bne	4274 <__swsetup_r+0xb4>
    420c:	e3130002 	tst	r3, #2
    4210:	05941014 	ldreq	r1, [r4, #20]
    4214:	e3520000 	cmp	r2, #0
    4218:	e5841008 	str	r1, [r4, #8]
    421c:	0a00001b 	beq	4290 <__swsetup_r+0xd0>
    4220:	e3a00000 	mov	r0, #0
    4224:	e8bd4038 	pop	{r3, r4, r5, lr}
    4228:	e12fff1e 	bx	lr
    422c:	e3130010 	tst	r3, #16
    4230:	0a000019 	beq	429c <__swsetup_r+0xdc>
    4234:	e3120004 	tst	r2, #4
    4238:	1a00001c 	bne	42b0 <__swsetup_r+0xf0>
    423c:	e5942010 	ldr	r2, [r4, #16]
    4240:	e3833008 	orr	r3, r3, #8
    4244:	e3520000 	cmp	r2, #0
    4248:	e1c430bc 	strh	r3, [r4, #12]
    424c:	1affffec 	bne	4204 <__swsetup_r+0x44>
    4250:	e2031d0a 	and	r1, r3, #640	; 0x280
    4254:	e3510c02 	cmp	r1, #512	; 0x200
    4258:	0affffe9 	beq	4204 <__swsetup_r+0x44>
    425c:	e1a00005 	mov	r0, r5
    4260:	e1a01004 	mov	r1, r4
    4264:	eb0009a3 	bl	68f8 <__smakebuf_r>
    4268:	e1d430bc 	ldrh	r3, [r4, #12]
    426c:	e5942010 	ldr	r2, [r4, #16]
    4270:	eaffffe3 	b	4204 <__swsetup_r+0x44>
    4274:	e5943014 	ldr	r3, [r4, #20]
    4278:	e3a01000 	mov	r1, #0
    427c:	e2633000 	rsb	r3, r3, #0
    4280:	e3520000 	cmp	r2, #0
    4284:	e5841008 	str	r1, [r4, #8]
    4288:	e5843018 	str	r3, [r4, #24]
    428c:	1affffe3 	bne	4220 <__swsetup_r+0x60>
    4290:	e1d430bc 	ldrh	r3, [r4, #12]
    4294:	e3130080 	tst	r3, #128	; 0x80
    4298:	0affffe0 	beq	4220 <__swsetup_r+0x60>
    429c:	e3e00000 	mvn	r0, #0
    42a0:	eaffffdf 	b	4224 <__swsetup_r+0x64>
    42a4:	e1a00003 	mov	r0, r3
    42a8:	eb0007bc 	bl	61a0 <__sinit>
    42ac:	eaffffcd 	b	41e8 <__swsetup_r+0x28>
    42b0:	e5941030 	ldr	r1, [r4, #48]	; 0x30
    42b4:	e3510000 	cmp	r1, #0
    42b8:	0a000007 	beq	42dc <__swsetup_r+0x11c>
    42bc:	e2842040 	add	r2, r4, #64	; 0x40
    42c0:	e1510002 	cmp	r1, r2
    42c4:	0a000002 	beq	42d4 <__swsetup_r+0x114>
    42c8:	e1a00005 	mov	r0, r5
    42cc:	eb000875 	bl	64a8 <_free_r>
    42d0:	e1d430bc 	ldrh	r3, [r4, #12]
    42d4:	e3a02000 	mov	r2, #0
    42d8:	e5842030 	str	r2, [r4, #48]	; 0x30
    42dc:	e5942010 	ldr	r2, [r4, #16]
    42e0:	e3a01000 	mov	r1, #0
    42e4:	e3c33024 	bic	r3, r3, #36	; 0x24
    42e8:	e5841004 	str	r1, [r4, #4]
    42ec:	e5842000 	str	r2, [r4]
    42f0:	eaffffd2 	b	4240 <__swsetup_r+0x80>
    42f4:	000915c8 	.word	0x000915c8

000042f8 <__register_exitproc>:
    42f8:	e59fc0e4 	ldr	r12, [pc, #228]	; 43e4 <__register_exitproc+0xec>
    42fc:	e92d41f0 	push	{r4, r5, r6, r7, r8, lr}
    4300:	e59c4000 	ldr	r4, [r12]
    4304:	e594c148 	ldr	r12, [r4, #328]	; 0x148
    4308:	e35c0000 	cmp	r12, #0
    430c:	0284cf53 	addeq	r12, r4, #332	; 0x14c
    4310:	e59c5004 	ldr	r5, [r12, #4]
    4314:	0584c148 	streq	r12, [r4, #328]	; 0x148
    4318:	e355001f 	cmp	r5, #31
    431c:	e24dd010 	sub	sp, sp, #16
    4320:	e1a06000 	mov	r6, r0
    4324:	da000015 	ble	4380 <__register_exitproc+0x88>
    4328:	e59f00b8 	ldr	r0, [pc, #184]	; 43e8 <__register_exitproc+0xf0>
    432c:	e3500000 	cmp	r0, #0
    4330:	1a000001 	bne	433c <__register_exitproc+0x44>
    4334:	e3e00000 	mvn	r0, #0
    4338:	ea000018 	b	43a0 <__register_exitproc+0xa8>
    433c:	e3a00e19 	mov	r0, #400	; 0x190
    4340:	e58d100c 	str	r1, [sp, #12]
    4344:	e58d2008 	str	r2, [sp, #8]
    4348:	e58d3004 	str	r3, [sp, #4]
    434c:	e320f000 	nop	{0}
    4350:	e250c000 	subs	r12, r0, #0
    4354:	e59d100c 	ldr	r1, [sp, #12]
    4358:	e59d2008 	ldr	r2, [sp, #8]
    435c:	e59d3004 	ldr	r3, [sp, #4]
    4360:	0afffff3 	beq	4334 <__register_exitproc+0x3c>
    4364:	e5945148 	ldr	r5, [r4, #328]	; 0x148
    4368:	e3a00000 	mov	r0, #0
    436c:	e58c0004 	str	r0, [r12, #4]
    4370:	e58c5000 	str	r5, [r12]
    4374:	e584c148 	str	r12, [r4, #328]	; 0x148
    4378:	e58c0188 	str	r0, [r12, #392]	; 0x188
    437c:	e58c018c 	str	r0, [r12, #396]	; 0x18c
    4380:	e3560000 	cmp	r6, #0
    4384:	e59c4004 	ldr	r4, [r12, #4]
    4388:	1a000007 	bne	43ac <__register_exitproc+0xb4>
    438c:	e2843002 	add	r3, r4, #2
    4390:	e2844001 	add	r4, r4, #1
    4394:	e78c1103 	str	r1, [r12, r3, lsl #2]
    4398:	e58c4004 	str	r4, [r12, #4]
    439c:	e3a00000 	mov	r0, #0
    43a0:	e28dd010 	add	sp, sp, #16
    43a4:	e8bd41f0 	pop	{r4, r5, r6, r7, r8, lr}
    43a8:	e12fff1e 	bx	lr
    43ac:	e3a00001 	mov	r0, #1
    43b0:	e1a00410 	lsl	r0, r0, r4
    43b4:	e08c8104 	add	r8, r12, r4, lsl #2
    43b8:	e3560002 	cmp	r6, #2
    43bc:	e59c7188 	ldr	r7, [r12, #392]	; 0x188
    43c0:	e5883108 	str	r3, [r8, #264]	; 0x108
    43c4:	059c318c 	ldreq	r3, [r12, #396]	; 0x18c
    43c8:	e1877000 	orr	r7, r7, r0
    43cc:	01830000 	orreq	r0, r3, r0
    43d0:	e1a05008 	mov	r5, r8
    43d4:	e5882088 	str	r2, [r8, #136]	; 0x88
    43d8:	e58c7188 	str	r7, [r12, #392]	; 0x188
    43dc:	058c018c 	streq	r0, [r12, #396]	; 0x18c
    43e0:	eaffffe9 	b	438c <__register_exitproc+0x94>
    43e4:	0000cba8 	.word	0x0000cba8
    43e8:	00000000 	.word	0x00000000

000043ec <__call_exitprocs>:
    43ec:	e92d4ff0 	push	{r4, r5, r6, r7, r8, r9, r10, r11, lr}
    43f0:	e59f3168 	ldr	r3, [pc, #360]	; 4560 <__call_exitprocs+0x174>
    43f4:	e5933000 	ldr	r3, [r3]
    43f8:	e24dd014 	sub	sp, sp, #20
    43fc:	e58d3004 	str	r3, [sp, #4]
    4400:	e2833f52 	add	r3, r3, #328	; 0x148
    4404:	e58d0008 	str	r0, [sp, #8]
    4408:	e58d300c 	str	r3, [sp, #12]
    440c:	e1a07001 	mov	r7, r1
    4410:	e3a08001 	mov	r8, #1
    4414:	e59d3004 	ldr	r3, [sp, #4]
    4418:	e5936148 	ldr	r6, [r3, #328]	; 0x148
    441c:	e3560000 	cmp	r6, #0
    4420:	e59db00c 	ldr	r11, [sp, #12]
    4424:	0a000033 	beq	44f8 <__call_exitprocs+0x10c>
    4428:	e5965004 	ldr	r5, [r6, #4]
    442c:	e2554001 	subs	r4, r5, #1
    4430:	5286a088 	addpl	r10, r6, #136	; 0x88
    4434:	5285501f 	addpl	r5, r5, #31
    4438:	508a5105 	addpl	r5, r10, r5, lsl #2
    443c:	5a000007 	bpl	4460 <__call_exitprocs+0x74>
    4440:	ea000029 	b	44ec <__call_exitprocs+0x100>
    4444:	e5953000 	ldr	r3, [r5]
    4448:	e1530007 	cmp	r3, r7
    444c:	0a000005 	beq	4468 <__call_exitprocs+0x7c>
    4450:	e2444001 	sub	r4, r4, #1
    4454:	e3740001 	cmn	r4, #1
    4458:	e2455004 	sub	r5, r5, #4
    445c:	0a000022 	beq	44ec <__call_exitprocs+0x100>
    4460:	e3570000 	cmp	r7, #0
    4464:	1afffff6 	bne	4444 <__call_exitprocs+0x58>
    4468:	e5963004 	ldr	r3, [r6, #4]
    446c:	e06a2005 	rsb	r2, r10, r5
    4470:	e2433001 	sub	r3, r3, #1
    4474:	e0862002 	add	r2, r6, r2
    4478:	e1530004 	cmp	r3, r4
    447c:	e5123078 	ldr	r3, [r2, #-120]	; 0xffffff88
    4480:	13a01000 	movne	r1, #0
    4484:	05864004 	streq	r4, [r6, #4]
    4488:	15021078 	strne	r1, [r2, #-120]	; 0xffffff88
    448c:	e3530000 	cmp	r3, #0
    4490:	0affffee 	beq	4450 <__call_exitprocs+0x64>
    4494:	e1a02418 	lsl	r2, r8, r4
    4498:	e5961188 	ldr	r1, [r6, #392]	; 0x188
    449c:	e1120001 	tst	r2, r1
    44a0:	e5969004 	ldr	r9, [r6, #4]
    44a4:	0a000016 	beq	4504 <__call_exitprocs+0x118>
    44a8:	e596118c 	ldr	r1, [r6, #396]	; 0x18c
    44ac:	e1120001 	tst	r2, r1
    44b0:	1a000016 	bne	4510 <__call_exitprocs+0x124>
    44b4:	e59d0008 	ldr	r0, [sp, #8]
    44b8:	e5151080 	ldr	r1, [r5, #-128]	; 0xffffff80
    44bc:	e1a0e00f 	mov	lr, pc
    44c0:	e12fff13 	bx	r3
    44c4:	e5963004 	ldr	r3, [r6, #4]
    44c8:	e1530009 	cmp	r3, r9
    44cc:	1affffd0 	bne	4414 <__call_exitprocs+0x28>
    44d0:	e59b3000 	ldr	r3, [r11]
    44d4:	e1530006 	cmp	r3, r6
    44d8:	1affffcd 	bne	4414 <__call_exitprocs+0x28>
    44dc:	e2444001 	sub	r4, r4, #1
    44e0:	e3740001 	cmn	r4, #1
    44e4:	e2455004 	sub	r5, r5, #4
    44e8:	1affffdc 	bne	4460 <__call_exitprocs+0x74>
    44ec:	e59f1070 	ldr	r1, [pc, #112]	; 4564 <__call_exitprocs+0x178>
    44f0:	e3510000 	cmp	r1, #0
    44f4:	1a000009 	bne	4520 <__call_exitprocs+0x134>
    44f8:	e28dd014 	add	sp, sp, #20
    44fc:	e8bd4ff0 	pop	{r4, r5, r6, r7, r8, r9, r10, r11, lr}
    4500:	e12fff1e 	bx	lr
    4504:	e1a0e00f 	mov	lr, pc
    4508:	e12fff13 	bx	r3
    450c:	eaffffec 	b	44c4 <__call_exitprocs+0xd8>
    4510:	e5150080 	ldr	r0, [r5, #-128]	; 0xffffff80
    4514:	e1a0e00f 	mov	lr, pc
    4518:	e12fff13 	bx	r3
    451c:	eaffffe8 	b	44c4 <__call_exitprocs+0xd8>
    4520:	e5963004 	ldr	r3, [r6, #4]
    4524:	e3530000 	cmp	r3, #0
    4528:	e5963000 	ldr	r3, [r6]
    452c:	1a000008 	bne	4554 <__call_exitprocs+0x168>
    4530:	e3530000 	cmp	r3, #0
    4534:	0a000006 	beq	4554 <__call_exitprocs+0x168>
    4538:	e1a00006 	mov	r0, r6
    453c:	e58b3000 	str	r3, [r11]
    4540:	e320f000 	nop	{0}
    4544:	e59b6000 	ldr	r6, [r11]
    4548:	e3560000 	cmp	r6, #0
    454c:	1affffb5 	bne	4428 <__call_exitprocs+0x3c>
    4550:	eaffffe8 	b	44f8 <__call_exitprocs+0x10c>
    4554:	e1a0b006 	mov	r11, r6
    4558:	e1a06003 	mov	r6, r3
    455c:	eafffff9 	b	4548 <__call_exitprocs+0x15c>
    4560:	0000cba8 	.word	0x0000cba8
    4564:	00000000 	.word	0x00000000

00004568 <register_fini>:
    4568:	e92d4008 	push	{r3, lr}
    456c:	e59f3010 	ldr	r3, [pc, #16]	; 4584 <register_fini+0x1c>
    4570:	e3530000 	cmp	r3, #0
    4574:	159f000c 	ldrne	r0, [pc, #12]	; 4588 <register_fini+0x20>
    4578:	1bfff660 	blne	1f00 <atexit>
    457c:	e8bd4008 	pop	{r3, lr}
    4580:	e12fff1e 	bx	lr
    4584:	0000cda0 	.word	0x0000cda0
    4588:	00006368 	.word	0x00006368
    458c:	00000000 	.word	0x00000000

00004590 <quorem>:
    4590:	e92d4ff8 	push	{r3, r4, r5, r6, r7, r8, r9, r10, r11, lr}
    4594:	e5903010 	ldr	r3, [r0, #16]
    4598:	e5916010 	ldr	r6, [r1, #16]
    459c:	e1560003 	cmp	r6, r3
    45a0:	e1a0a000 	mov	r10, r0
    45a4:	e1a05001 	mov	r5, r1
    45a8:	c3a00000 	movgt	r0, #0
    45ac:	ca00006d 	bgt	4768 <quorem+0x1d8>
    45b0:	e2863003 	add	r3, r6, #3
    45b4:	e1a03103 	lsl	r3, r3, #2
    45b8:	e0819003 	add	r9, r1, r3
    45bc:	e5991004 	ldr	r1, [r9, #4]
    45c0:	e08a3003 	add	r3, r10, r3
    45c4:	e5930004 	ldr	r0, [r3, #4]
    45c8:	e2811001 	add	r1, r1, #1
    45cc:	eb001a30 	bl	ae94 <__aeabi_uidiv>
    45d0:	e2507000 	subs	r7, r0, #0
    45d4:	e2466001 	sub	r6, r6, #1
    45d8:	e2899004 	add	r9, r9, #4
    45dc:	e2854014 	add	r4, r5, #20
    45e0:	e28a8014 	add	r8, r10, #20
    45e4:	0a000030 	beq	46ac <quorem+0x11c>
    45e8:	e3a0c000 	mov	r12, #0
    45ec:	e1a02008 	mov	r2, r8
    45f0:	e1a03004 	mov	r3, r4
    45f4:	e1a0000c 	mov	r0, r12
    45f8:	e493e004 	ldr	lr, [r3], #4
    45fc:	e1a0b80e 	lsl	r11, lr, #16
    4600:	e1a0b82b 	lsr	r11, r11, #16
    4604:	e1a0e82e 	lsr	lr, lr, #16
    4608:	e02bcb97 	mla	r11, r7, r11, r12
    460c:	e00c0e97 	mul	r12, r7, lr
    4610:	e592e000 	ldr	lr, [r2]
    4614:	e08cc82b 	add	r12, r12, r11, lsr #16
    4618:	e1a0180e 	lsl	r1, lr, #16
    461c:	e0801821 	add	r1, r0, r1, lsr #16
    4620:	e1a0b80b 	lsl	r11, r11, #16
    4624:	e1a0080c 	lsl	r0, r12, #16
    4628:	e041182b 	sub	r1, r1, r11, lsr #16
    462c:	e1a00820 	lsr	r0, r0, #16
    4630:	e060082e 	rsb	r0, r0, lr, lsr #16
    4634:	e1a0b801 	lsl	r11, r1, #16
    4638:	e0800841 	add	r0, r0, r1, asr #16
    463c:	e1a0182b 	lsr	r1, r11, #16
    4640:	e1811800 	orr	r1, r1, r0, lsl #16
    4644:	e1590003 	cmp	r9, r3
    4648:	e1a0c82c 	lsr	r12, r12, #16
    464c:	e1a00840 	asr	r0, r0, #16
    4650:	e4821004 	str	r1, [r2], #4
    4654:	2affffe7 	bcs	45f8 <quorem+0x68>
    4658:	e2863004 	add	r3, r6, #4
    465c:	e08a3103 	add	r3, r10, r3, lsl #2
    4660:	e5932004 	ldr	r2, [r3, #4]
    4664:	e3520000 	cmp	r2, #0
    4668:	1a00000f 	bne	46ac <quorem+0x11c>
    466c:	e1580003 	cmp	r8, r3
    4670:	e2832004 	add	r2, r3, #4
    4674:	2a00000b 	bcs	46a8 <quorem+0x118>
    4678:	e5122004 	ldr	r2, [r2, #-4]
    467c:	e3520000 	cmp	r2, #0
    4680:	1a000008 	bne	46a8 <quorem+0x118>
    4684:	e2433004 	sub	r3, r3, #4
    4688:	ea000003 	b	469c <quorem+0x10c>
    468c:	e5932000 	ldr	r2, [r3]
    4690:	e3520000 	cmp	r2, #0
    4694:	e2433004 	sub	r3, r3, #4
    4698:	1a000002 	bne	46a8 <quorem+0x118>
    469c:	e1580003 	cmp	r8, r3
    46a0:	e2466001 	sub	r6, r6, #1
    46a4:	3afffff8 	bcc	468c <quorem+0xfc>
    46a8:	e58a6010 	str	r6, [r10, #16]
    46ac:	e1a0000a 	mov	r0, r10
    46b0:	e1a01005 	mov	r1, r5
    46b4:	eb000d9c 	bl	7d2c <__mcmp>
    46b8:	e3500000 	cmp	r0, #0
    46bc:	ba000028 	blt	4764 <quorem+0x1d4>
    46c0:	e2877001 	add	r7, r7, #1
    46c4:	e1a03008 	mov	r3, r8
    46c8:	e3a02000 	mov	r2, #0
    46cc:	e4945004 	ldr	r5, [r4], #4
    46d0:	e593c000 	ldr	r12, [r3]
    46d4:	e1a01805 	lsl	r1, r5, #16
    46d8:	e1a0080c 	lsl	r0, r12, #16
    46dc:	e1a01821 	lsr	r1, r1, #16
    46e0:	e0611820 	rsb	r1, r1, r0, lsr #16
    46e4:	e0811002 	add	r1, r1, r2
    46e8:	e1a02825 	lsr	r2, r5, #16
    46ec:	e062282c 	rsb	r2, r2, r12, lsr #16
    46f0:	e1a00801 	lsl	r0, r1, #16
    46f4:	e0822841 	add	r2, r2, r1, asr #16
    46f8:	e1a01820 	lsr	r1, r0, #16
    46fc:	e1811802 	orr	r1, r1, r2, lsl #16
    4700:	e1590004 	cmp	r9, r4
    4704:	e1a02842 	asr	r2, r2, #16
    4708:	e4831004 	str	r1, [r3], #4
    470c:	2affffee 	bcs	46cc <quorem+0x13c>
    4710:	e2863004 	add	r3, r6, #4
    4714:	e08a3103 	add	r3, r10, r3, lsl #2
    4718:	e5932004 	ldr	r2, [r3, #4]
    471c:	e3520000 	cmp	r2, #0
    4720:	1a00000f 	bne	4764 <quorem+0x1d4>
    4724:	e1580003 	cmp	r8, r3
    4728:	e2832004 	add	r2, r3, #4
    472c:	2a00000b 	bcs	4760 <quorem+0x1d0>
    4730:	e5122004 	ldr	r2, [r2, #-4]
    4734:	e3520000 	cmp	r2, #0
    4738:	1a000008 	bne	4760 <quorem+0x1d0>
    473c:	e2433004 	sub	r3, r3, #4
    4740:	ea000003 	b	4754 <quorem+0x1c4>
    4744:	e5932000 	ldr	r2, [r3]
    4748:	e3520000 	cmp	r2, #0
    474c:	e2433004 	sub	r3, r3, #4
    4750:	1a000002 	bne	4760 <quorem+0x1d0>
    4754:	e1580003 	cmp	r8, r3
    4758:	e2466001 	sub	r6, r6, #1
    475c:	3afffff8 	bcc	4744 <quorem+0x1b4>
    4760:	e58a6010 	str	r6, [r10, #16]
    4764:	e1a00007 	mov	r0, r7
    4768:	e8bd4ff8 	pop	{r3, r4, r5, r6, r7, r8, r9, r10, r11, lr}
    476c:	e12fff1e 	bx	lr

00004770 <_dtoa_r>:
    4770:	e92d4ff0 	push	{r4, r5, r6, r7, r8, r9, r10, r11, lr}
    4774:	e5901040 	ldr	r1, [r0, #64]	; 0x40
    4778:	e24dd07c 	sub	sp, sp, #124	; 0x7c
    477c:	e3510000 	cmp	r1, #0
    4780:	e1a06000 	mov	r6, r0
    4784:	e59d40ac 	ldr	r4, [sp, #172]	; 0xac
    4788:	e58d2010 	str	r2, [sp, #16]
    478c:	e58d3014 	str	r3, [sp, #20]
    4790:	0a000007 	beq	47b4 <_dtoa_r+0x44>
    4794:	e5903044 	ldr	r3, [r0, #68]	; 0x44
    4798:	e3a02001 	mov	r2, #1
    479c:	e1a02312 	lsl	r2, r2, r3
    47a0:	e5813004 	str	r3, [r1, #4]
    47a4:	e5812008 	str	r2, [r1, #8]
    47a8:	eb000bac 	bl	7660 <_Bfree>
    47ac:	e3a03000 	mov	r3, #0
    47b0:	e5863040 	str	r3, [r6, #64]	; 0x40
    47b4:	e59da014 	ldr	r10, [sp, #20]
    47b8:	e35a0000 	cmp	r10, #0
    47bc:	b3a03001 	movlt	r3, #1
    47c0:	a3a03000 	movge	r3, #0
    47c4:	b5843000 	strlt	r3, [r4]
    47c8:	a5843000 	strge	r3, [r4]
    47cc:	e59f3570 	ldr	r3, [pc, #1392]	; 4d44 <_dtoa_r+0x5d4>
    47d0:	b3caa102 	biclt	r10, r10, #-2147483648	; 0x80000000
    47d4:	e59f2568 	ldr	r2, [pc, #1384]	; 4d44 <_dtoa_r+0x5d4>
    47d8:	b1a0100a 	movlt	r1, r10
    47dc:	e00a3003 	and	r3, r10, r3
    47e0:	b58d1014 	strlt	r1, [sp, #20]
    47e4:	e1530002 	cmp	r3, r2
    47e8:	0a000016 	beq	4848 <_dtoa_r+0xd8>
    47ec:	e28d5010 	add	r5, sp, #16
    47f0:	e8950030 	ldm	r5, {r4, r5}
    47f4:	e3a02000 	mov	r2, #0
    47f8:	e1a00004 	mov	r0, r4
    47fc:	e1a01005 	mov	r1, r5
    4800:	e3a03000 	mov	r3, #0
    4804:	eb001c49 	bl	b930 <__aeabi_dcmpeq>
    4808:	e3500000 	cmp	r0, #0
    480c:	0a00001e 	beq	488c <_dtoa_r+0x11c>
    4810:	e59d40b0 	ldr	r4, [sp, #176]	; 0xb0
    4814:	e59dc0a8 	ldr	r12, [sp, #168]	; 0xa8
    4818:	e3a03001 	mov	r3, #1
    481c:	e3540000 	cmp	r4, #0
    4820:	e58c3000 	str	r3, [r12]
    4824:	0a00009a 	beq	4a94 <_dtoa_r+0x324>
    4828:	e59f44e8 	ldr	r4, [pc, #1256]	; 4d18 <_dtoa_r+0x5a8>
    482c:	e59dc0b0 	ldr	r12, [sp, #176]	; 0xb0
    4830:	e58c4000 	str	r4, [r12]
    4834:	e2444001 	sub	r4, r4, #1
    4838:	e1a00004 	mov	r0, r4
    483c:	e28dd07c 	add	sp, sp, #124	; 0x7c
    4840:	e8bd4ff0 	pop	{r4, r5, r6, r7, r8, r9, r10, r11, lr}
    4844:	e12fff1e 	bx	lr
    4848:	e59d2010 	ldr	r2, [sp, #16]
    484c:	e59f34c8 	ldr	r3, [pc, #1224]	; 4d1c <_dtoa_r+0x5ac>
    4850:	e59d40a8 	ldr	r4, [sp, #168]	; 0xa8
    4854:	e3520000 	cmp	r2, #0
    4858:	e5843000 	str	r3, [r4]
    485c:	0a000079 	beq	4a48 <_dtoa_r+0x2d8>
    4860:	e59f44b8 	ldr	r4, [pc, #1208]	; 4d20 <_dtoa_r+0x5b0>
    4864:	e59dc0b0 	ldr	r12, [sp, #176]	; 0xb0
    4868:	e35c0000 	cmp	r12, #0
    486c:	0afffff1 	beq	4838 <_dtoa_r+0xc8>
    4870:	e5d43003 	ldrb	r3, [r4, #3]
    4874:	e59dc0b0 	ldr	r12, [sp, #176]	; 0xb0
    4878:	e3530000 	cmp	r3, #0
